ccopy_reg
_reconstructor
p0
(csympy_solver
EquationSolver
p1
c__builtin__
object
p2
Ntp3
Rp4
((lp5
csympy.core.relational
Equality
p6
(csympy.core.add
Add
p7
(csympy.core.symbol
Symbol
p8
(S'p6'
p9
tp10
Rp11
(dp12
S'_assumptions'
p13
g0
(csympy.core.assumptions
StdFactKB
p14
c__builtin__
dict
p15
(dp16
S'real'
p17
NsS'polar'
p18
NsS'irrational'
p19
NsS'antihermitian'
p20
NsS'nonpositive'
p21
NsS'unbounded'
p22
NsS'negative'
p23
NsS'hermitian'
p24
NsS'bounded'
p25
NsS'integer'
p26
NsS'imaginary'
p27
NsS'odd'
p28
NsS'even'
p29
NsS'commutative'
p30
I01
sS'positive'
p31
NsS'zero'
p32
NsS'nonnegative'
p33
NsS'rational'
p34
Nstp35
Rp36
sbcsympy.core.mul
Mul
p37
(csympy.core.numbers
Integer
p38
(I2
tp39
Rp40
(dp41
bg8
(S'z5556'
p42
tp43
Rp44
(dp45
g13
g0
(g14
g15
(dp46
g17
Nsg19
Nsg20
Nsg21
Nsg22
Nsg24
NsS'bounded'
p47
NsS'integer'
p48
Nsg27
NsS'odd'
p49
Nsg29
Nsg30
I01
sg32
Nsg31
Nsg23
Nsg33
Nsg34
Nstp50
Rp51
sbtp52
Rp53
(dp54
bg8
(S'q6'
p55
tp56
Rp57
(dp58
g13
g0
(g14
g15
(dp59
S'real'
p60
Nsg18
NsS'irrational'
p61
NsS'antihermitian'
p62
Nsg21
Nsg22
NsS'hermitian'
p63
Nsg25
Nsg48
NsS'imaginary'
p64
Nsg49
Nsg29
Nsg30
I01
sg32
Nsg31
Nsg23
Nsg33
NsS'rational'
p65
Nstp66
Rp67
sbtp68
Rp69
(dp70
bg7
(g8
(S'z57'
p71
tp72
Rp73
(dp74
g13
g0
(g14
g15
(dp75
g60
Nsg61
Nsg62
Nsg21
Nsg22
Nsg63
Nsg25
Nsg48
Nsg64
Nsg49
Nsg29
Nsg30
I01
sg32
Nsg31
Nsg23
Nsg33
Nsg65
Nstp76
Rp77
sbg37
(g40
g8
(S'z5657'
p78
tp79
Rp80
(dp81
g13
g0
(g14
g15
(dp82
g60
Nsg61
Nsg62
Nsg21
Nsg22
Nsg63
Nsg25
Nsg48
Nsg64
Nsg49
Nsg29
Nsg30
I01
sg32
Nsg31
Nsg23
Nsg33
Nsg65
Nstp83
Rp84
sbtp85
Rp86
(dp87
btp88
Rp89
(dp90
btp91
Rp92
(dp93
bag6
(g7
(g8
(S'z68'
p94
tp95
Rp96
(dp97
g13
g0
(g14
g15
(dp98
g60
Nsg61
Nsg62
Nsg21
Nsg22
Nsg63
Nsg25
Nsg48
Nsg64
Nsg49
Nsg29
Nsg30
I01
sg32
Nsg31
Nsg23
Nsg33
Nsg65
Nstp99
Rp100
sbg57
g8
(S'q7'
p101
tp102
Rp103
(dp104
g13
g0
(g14
g15
(dp105
g60
Nsg18
Nsg61
Nsg62
Nsg21
Nsg22
Nsg32
Nsg25
Nsg48
Nsg63
Nsg49
Nsg64
Nsg29
Nsg30
I01
sg31
Nsg23
Nsg33
Nsg65
Nstp106
Rp107
sbg8
(S'z78'
p108
tp109
Rp110
(dp111
g13
g0
(g14
g15
(dp112
g17
Nsg29
Nsg19
Nsg20
Nsg21
Nsg31
Nsg23
Nsg33
Nsg24
Nsg32
Nsg47
Nsg34
Nsg22
Nsg27
Nsg30
I01
stp113
Rp114
sbg8
(S'p7'
p115
tp116
Rp117
(dp118
g13
g0
(g14
g15
(dp119
g60
Nsg18
Nsg61
Nsg62
Nsg21
Nsg22
Nsg63
Nsg25
Nsg64
Nsg29
Nsg30
I01
sg32
Nsg31
Nsg23
Nsg33
Nsg65
Nstp120
Rp121
sbg37
(g11
g8
(S'q2'
p122
tp123
Rp124
(dp125
g13
g0
(g14
g15
(dp126
g60
Nsg61
Nsg62
Nsg21
Nsg22
Nsg32
Nsg25
Nsg48
Nsg63
Nsg49
Nsg64
Nsg29
Nsg30
I01
sg31
Nsg23
Nsg33
Nsg65
Nstp127
Rp128
sbtp129
Rp130
(dp131
btp132
Rp133
(dp134
bg7
(csympy.core.numbers
One
p135
(tRp136
(dp137
bg37
(g38
(I4
tp138
Rp139
(dp140
bg8
(S'z810'
p141
tp142
Rp143
(dp144
g13
g0
(g14
g15
(dp145
g17
Nsg29
Nsg19
Nsg20
Nsg21
Nsg31
Nsg23
Nsg33
Nsg24
Nsg32
Nsg47
Nsg34
Nsg22
Nsg27
Nsg30
I01
stp146
Rp147
sbtp148
Rp149
(dp150
bg37
(g124
g57
tp151
Rp152
(dp153
bg37
(g40
g8
(S'z89'
p154
tp155
Rp156
(dp157
g13
g0
(g14
g15
(dp158
g17
Nsg29
Nsg30
I01
sg20
Nsg21
Nsg31
Nsg23
Nsg33
Nsg24
Nsg32
Nsg47
Nsg34
Nsg22
Nsg27
Nsg19
Nstp159
Rp160
sbtp161
Rp162
(dp163
btp164
Rp165
(dp166
btp167
Rp168
(dp169
bag6
(g7
(g8
(S'z1112'
p170
tp171
Rp172
(dp173
g13
g0
(g14
g15
(dp174
g60
Nsg18
Nsg61
Nsg62
Nsg21
Nsg22
Nsg63
Nsg25
Nsg48
Nsg64
Nsg49
Nsg29
Nsg30
I01
sg32
Nsg31
Nsg23
Nsg33
Nsg65
Nstp175
Rp176
sbg8
(S'z1012'
p177
tp178
Rp179
(dp180
g13
g0
(g14
g15
(dp181
g17
Nsg18
Nsg19
Nsg20
Nsg21
Nsg22
Nsg24
Nsg47
Nsg27
Nsg29
Nsg30
I01
sg32
Nsg31
Nsg23
Nsg33
Nsg34
Nstp182
Rp183
sbg37
(g11
g57
tp184
Rp185
(dp186
bg37
(g40
g117
g44
tp187
Rp188
(dp189
bg37
(g40
g103
g44
tp190
Rp191
(dp192
btp193
Rp194
(dp195
bg7
(g136
g37
(g103
g73
tp196
Rp197
(dp198
bg37
(g117
g73
tp199
Rp200
(dp201
btp202
Rp203
(dp204
btp205
Rp206
(dp207
bag6
(g7
(g8
(S'z1011'
p208
tp209
Rp210
(dp211
g13
g0
(g14
g15
(dp212
g17
Nsg19
Nsg20
Nsg21
Nsg22
Nsg24
Nsg47
Nsg48
Nsg27
Nsg49
Nsg29
Nsg30
I01
sg32
Nsg31
Nsg23
Nsg33
Nsg34
Nstp213
Rp214
sbg37
(g117
g8
(S'q4'
p215
tp216
Rp217
(dp218
g13
g0
(g14
g15
(dp219
g60
Nsg61
Nsg62
Nsg21
Nsg22
Nsg32
Nsg25
Nsg48
Nsg63
Nsg49
Nsg64
Nsg29
Nsg30
I01
sg31
Nsg23
Nsg33
Nsg65
Nstp220
Rp221
sbtp222
Rp223
(dp224
bg103
g37
(g40
g57
g44
tp225
Rp226
(dp227
bg8
(S'z911'
p228
tp229
Rp230
(dp231
g13
g0
(g14
g15
(dp232
g17
Nsg29
Nsg30
I01
sg20
Nsg21
Nsg31
Nsg23
Nsg33
Nsg24
Nsg32
Nsg47
Nsg34
Nsg22
Nsg27
Nsg19
Nstp233
Rp234
sbg37
(g40
g11
g44
tp235
Rp236
(dp237
btp238
Rp239
(dp240
bg7
(g37
(g11
g73
tp241
Rp242
(dp243
bg37
(g40
g172
tp244
Rp245
(dp246
bg37
(g57
g73
tp247
Rp248
(dp249
bg37
(g217
g103
tp250
Rp251
(dp252
btp253
Rp254
(dp255
btp256
Rp257
(dp258
bag6
(g7
(g11
g8
(S'z67'
p259
tp260
Rp261
(dp262
g13
g0
(g14
g15
(dp263
g60
Nsg61
Nsg62
Nsg21
Nsg22
Nsg63
Nsg25
Nsg48
Nsg64
Nsg49
Nsg29
Nsg30
I01
sg32
Nsg31
Nsg23
Nsg33
Nsg65
Nstp264
Rp265
sbg37
(g139
g44
tp266
Rp267
(dp268
bg57
g103
g117
tp269
Rp270
(dp271
bg7
(g37
(g40
g110
tp272
Rp273
(dp274
bg37
(g139
g8
(S'z79'
p275
tp276
Rp277
(dp278
g13
g0
(g14
g15
(dp279
g17
Nsg19
Nsg20
Nsg21
Nsg22
Nsg24
Nsg47
Nsg48
Nsg27
Nsg49
Nsg29
Nsg30
I01
sg32
Nsg31
Nsg23
Nsg33
Nsg34
Nstp280
Rp281
sbtp282
Rp283
(dp284
bg37
(g40
g73
tp285
Rp286
(dp287
bg37
(g38
(I8
tp288
Rp289
(dp290
bg8
(S'z710'
p291
tp292
Rp293
(dp294
g13
g0
(g14
g15
(dp295
g17
Nsg29
Nsg30
I01
sg20
Nsg21
Nsg31
Nsg23
Nsg33
Nsg24
Nsg32
Nsg47
Nsg34
Nsg22
Nsg27
Nsg19
Nstp296
Rp297
sbtp298
Rp299
(dp300
btp301
Rp302
(dp303
btp304
Rp305
(dp306
bag6
(g7
(g11
g217
g124
g53
g57
tp307
Rp308
(dp309
bg7
(g37
(g40
g124
g217
tp310
Rp311
(dp312
bg73
g37
(g139
g96
tp313
Rp314
(dp315
bg37
(g40
g261
tp316
Rp317
(dp318
btp319
Rp320
(dp321
btp322
Rp323
(dp324
bag6
(g7
(g53
g277
g103
g156
g37
(g117
g124
tp325
Rp326
(dp327
btp328
Rp329
(dp330
bg7
(g37
(g124
g103
tp331
Rp332
(dp333
bg37
(g40
g8
(S'z910'
p334
tp335
Rp336
(dp337
g13
g0
(g14
g15
(dp338
g17
Nsg29
Nsg30
I01
sg20
Nsg21
Nsg31
Nsg23
Nsg33
Nsg24
Nsg32
Nsg47
Nsg34
Nsg22
Nsg27
Nsg19
Nstp339
Rp340
sbtp341
Rp342
(dp343
bg73
g37
(g139
g230
tp344
Rp345
(dp346
btp347
Rp348
(dp349
btp350
Rp351
(dp352
bag6
(g7
(g103
g80
g117
tp353
Rp354
(dp355
bg136
tp356
Rp357
(dp358
bag6
(g7
(g37
(g38
(L34359738367L
tp359
Rp360
(dp361
bg8
(S'z57'
p362
tp363
Rp364
(dp365
g13
g0
(g14
g15
(dp366
g60
NsS'commutative'
p367
I01
sg62
NsS'nonpositive'
p368
NsS'positive'
p369
NsS'negative'
p370
NsS'nonnegative'
p371
Nsg63
NsS'zero'
p372
Nsg25
Nsg65
Nsg64
Nsg61
Nstp373
Rp374
sbtp375
Rp376
(dp377
bg37
(g11
g217
tp378
Rp379
(dp380
bg293
g57
g336
g37
(g38
(L34359738370L
tp381
Rp382
(dp383
bg8
(S'z5556'
p384
tp385
Rp386
(dp387
g13
g0
(g14
g15
(dp388
g60
Nsg367
I01
sg62
Nsg368
Nsg369
Nsg370
Nsg371
Nsg63
Nsg372
Nsg25
Nsg65
Nsg64
Nsg61
Nstp389
Rp390
sbtp391
Rp392
(dp393
bg143
tp394
Rp395
(dp396
bg7
(g136
g37
(g40
g210
tp397
Rp398
(dp399
bg37
(g139
g179
tp400
Rp401
(dp402
bg37
(g217
g57
tp403
Rp404
(dp405
bg37
(g38
(L68719476736L
tp406
Rp407
(dp408
bg44
g73
tp409
Rp410
(dp411
btp412
Rp413
(dp414
btp415
Rp416
(dp417
ba(dp418
g37
(g38
(I64
tp419
Rp420
(dp421
bg8
(S'q5'
p422
tp423
Rp424
(dp425
g13
g0
(g14
g15
(dp426
g60
Nsg18
Nsg61
Nsg62
Nsg21
Nsg22
Nsg32
Nsg25
Nsg48
Nsg63
Nsg49
Nsg64
Nsg29
Nsg30
I01
sg31
Nsg23
Nsg33
Nsg65
Nstp427
Rp428
sbtp429
Rp430
(dp431
bg37
(g420
g44
tp432
Rp433
(dp434
bsg37
(g117
g179
g44
tp435
Rp436
(dp437
bcsympy.core.numbers
Zero
p438
(tRp439
(dp440
bsg37
(g117
g103
g44
tp441
Rp442
(dp443
bg439
sg37
(g38
(I3
tp444
Rp445
(dp446
bg103
g172
g44
tp447
Rp448
(dp449
bg37
(g40
g424
g103
g172
tp450
Rp451
(dp452
bsg37
(g38
(I1366
tp453
Rp454
(dp455
bg424
g103
g179
tp456
Rp457
(dp458
bg37
(g38
(I1365
tp459
Rp460
(dp461
bg103
g179
g44
tp462
Rp463
(dp464
bsg37
(g117
g424
g179
tp465
Rp466
(dp467
bg439
sg37
(g38
(I22
tp468
Rp469
(dp470
bg117
g424
g179
tp471
Rp472
(dp473
bg37
(g38
(I21
tp474
Rp475
(dp476
bg117
g179
g44
tp477
Rp478
(dp479
bsg37
(g38
(I5462
tp480
Rp481
(dp482
bg424
g103
g179
tp483
Rp484
(dp485
bg37
(g38
(I5461
tp486
Rp487
(dp488
bg103
g179
g44
tp489
Rp490
(dp491
bsg37
(g38
(I262144
tp492
Rp493
(dp494
bg117
g424
g103
g44
tp495
Rp496
(dp497
bg7
(g37
(g38
(I87381
tp498
Rp499
(dp500
bg117
g103
g386
tp501
Rp502
(dp503
bg37
(g38
(I174762
tp504
Rp505
(dp506
bg117
g424
g103
tp507
Rp508
(dp509
btp510
Rp511
(dp512
bsg37
(g38
(I2048
tp513
Rp514
(dp515
bg117
g424
g103
g44
tp516
Rp517
(dp518
bg7
(g37
(g38
(I682
tp519
Rp520
(dp521
bg117
g424
g103
tp522
Rp523
(dp524
bg37
(g460
g117
g103
g386
tp525
Rp526
(dp527
btp528
Rp529
(dp530
bsg37
(g38
(I512
tp531
Rp532
(dp533
bg117
g424
g103
g44
tp534
Rp535
(dp536
bg7
(g37
(g38
(I170
tp537
Rp538
(dp539
bg117
g424
g103
tp540
Rp541
(dp542
bg37
(g38
(I341
tp543
Rp544
(dp545
bg117
g103
g386
tp546
Rp547
(dp548
btp549
Rp550
(dp551
bsg37
(g179
g172
tp552
Rp553
(dp554
bg439
sg37
(g289
g117
g424
g103
g44
tp555
Rp556
(dp557
bg7
(g37
(g38
(I5
tp558
Rp559
(dp560
bg117
g103
g386
tp561
Rp562
(dp563
bg37
(g40
g117
g424
g103
tp564
Rp565
(dp566
btp567
Rp568
(dp569
bsg37
(g38
(I87382
tp570
Rp571
(dp572
bg117
g424
g103
tp573
Rp574
(dp575
bg37
(g499
g117
g103
g44
tp576
Rp577
(dp578
bsg37
(g445
g117
g103
g44
tp579
Rp580
(dp581
bg37
(g40
g117
g424
g103
tp582
Rp583
(dp584
bsg37
(g38
(I524288
tp585
Rp586
(dp587
bg117
g424
g103
g44
tp588
Rp589
(dp590
bg7
(g37
(g499
g117
g103
g386
tp591
Rp592
(dp593
bg37
(g38
(I436906
tp594
Rp595
(dp596
bg117
g424
g103
tp597
Rp598
(dp599
btp600
Rp601
(dp602
bsg37
(g38
(I32768
tp603
Rp604
(dp605
bg117
g424
g103
g44
tp606
Rp607
(dp608
bg7
(g37
(g38
(I10922
tp609
Rp610
(dp611
bg117
g424
g103
tp612
Rp613
(dp614
bg37
(g38
(I21845
tp615
Rp616
(dp617
bg117
g103
g386
tp618
Rp619
(dp620
btp621
Rp622
(dp623
bsg37
(g103
g172
g44
tp624
Rp625
(dp626
bg439
sg37
(g38
(I16
tp627
Rp628
(dp629
bg424
tp630
Rp631
(dp632
bg37
(g628
g44
tp633
Rp634
(dp635
bsg37
(g38
(I2731
tp636
Rp637
(dp638
bg103
g179
g44
tp639
Rp640
(dp641
bg37
(g38
(I2730
tp642
Rp643
(dp644
bg424
g103
g179
tp645
Rp646
(dp647
bsg37
(g38
(I174763
tp648
Rp649
(dp650
bg103
g172
g44
tp651
Rp652
(dp653
bg37
(g505
g424
g103
g172
tp654
Rp655
(dp656
bsg37
(g38
(I11
tp657
Rp658
(dp659
bg103
g172
g44
tp660
Rp661
(dp662
bg37
(g38
(I10
tp663
Rp664
(dp665
bg424
g103
g172
tp666
Rp667
(dp668
bsg37
(g38
(I16384
tp669
Rp670
(dp671
bg117
g424
g103
g44
tp672
Rp673
(dp674
bg7
(g37
(g487
g117
g103
g44
tp675
Rp676
(dp677
bg37
(g610
g117
g424
g103
tp678
Rp679
(dp680
btp681
Rp682
(dp683
bsg37
(g38
(I65536
tp684
Rp685
(dp686
bg424
tp687
Rp688
(dp689
bg37
(g685
g44
tp690
Rp691
(dp692
bsg37
(g38
(I43691
tp693
Rp694
(dp695
bg11
g117
g57
g44
tp696
Rp697
(dp698
bg37
(g38
(I43690
tp699
Rp700
(dp701
bg11
g117
g424
g57
tp702
Rp703
(dp704
bsg37
(g38
(I171
tp705
Rp706
(dp707
bg103
g179
g44
tp708
Rp709
(dp710
bg37
(g538
g424
g103
g179
tp711
Rp712
(dp713
bsg37
(g38
(I683
tp714
Rp715
(dp716
bg11
g117
g57
g44
tp717
Rp718
(dp719
bg37
(g520
g11
g117
g424
g57
tp720
Rp721
(dp722
bsg37
(g481
g117
g424
g179
tp723
Rp724
(dp725
bg37
(g487
g117
g179
g44
tp726
Rp727
(dp728
bsg37
(g694
g117
g172
g44
tp729
Rp730
(dp731
bg37
(g700
g117
g424
g172
tp732
Rp733
(dp734
bsg37
(g38
(I10923
tp735
Rp736
(dp737
bg11
g57
g103
g44
tp738
Rp739
(dp740
bg37
(g610
g11
g424
g57
g103
tp741
Rp742
(dp743
bsg37
(g117
g424
g172
tp744
Rp745
(dp746
bg439
sg37
(g139
g117
g424
g103
g44
tp747
Rp748
(dp749
bg7
(g37
(g117
g103
g386
tp750
Rp751
(dp752
bg37
(g40
g117
g424
g103
tp753
Rp754
(dp755
btp756
Rp757
(dp758
bsg53
g37
(g40
g424
tp759
Rp760
(dp761
bsg37
(g38
(I8192
tp762
Rp763
(dp764
bg44
tp765
Rp766
(dp767
bg37
(g763
g424
tp768
Rp769
(dp770
bsg37
(g571
g424
g103
g179
tp771
Rp772
(dp773
bg37
(g499
g103
g179
g44
tp774
Rp775
(dp776
bsg37
(g38
(I21846
tp777
Rp778
(dp779
bg117
g424
g103
tp780
Rp781
(dp782
bg37
(g616
g117
g103
g44
tp783
Rp784
(dp785
bsg37
(g38
(I342
tp786
Rp787
(dp788
bg117
g424
g179
tp789
Rp790
(dp791
bg37
(g544
g117
g179
g44
tp792
Rp793
(dp794
bsg37
(g715
g103
g172
g44
tp795
Rp796
(dp797
bg37
(g520
g424
g103
g172
tp798
Rp799
(dp800
bsg37
(g117
g80
tp801
Rp802
(dp803
bg439
sg37
(g38
(I6
tp804
Rp805
(dp806
bg117
g424
g179
tp807
Rp808
(dp809
bg37
(g559
g117
g179
g44
tp810
Rp811
(dp812
bsg37
(g778
g11
g424
g57
g103
tp813
Rp814
(dp815
bg37
(g616
g11
g57
g103
g44
tp816
Rp817
(dp818
bsg37
(g420
g117
g424
g103
g44
tp819
Rp820
(dp821
bg7
(g37
(g475
g117
g103
g44
tp822
Rp823
(dp824
bg37
(g38
(I42
tp825
Rp826
(dp827
bg117
g424
g103
tp828
Rp829
(dp830
btp831
Rp832
(dp833
bsg37
(g694
g11
g57
g103
g44
tp834
Rp835
(dp836
bg37
(g700
g11
g424
g57
g103
tp837
Rp838
(dp839
bsg37
(g40
g117
g424
g172
tp840
Rp841
(dp842
bg37
(g117
g172
g44
tp843
Rp844
(dp845
bsg37
(g787
g117
g424
g103
tp846
Rp847
(dp848
bg37
(g544
g117
g103
g44
tp849
Rp850
(dp851
bsg37
(g445
g117
g172
g44
tp852
Rp853
(dp854
bg841
sg37
(g637
g11
g117
g57
g44
tp855
Rp856
(dp857
bg37
(g643
g11
g117
g424
g57
tp858
Rp859
(dp860
bsg37
(g736
g103
g172
g44
tp861
Rp862
(dp863
bg37
(g610
g424
g103
g172
tp864
Rp865
(dp866
bsg37
(g778
g424
g103
g179
tp867
Rp868
(dp869
bg37
(g616
g103
g179
g44
tp870
Rp871
(dp872
bsg37
(g805
g424
g103
g179
tp873
Rp874
(dp875
bg37
(g559
g103
g179
g44
tp876
Rp877
(dp878
bsg37
(g571
g11
g424
g57
g103
tp879
Rp880
(dp881
bg37
(g499
g11
g57
g103
g44
tp882
Rp883
(dp884
bsg37
(g11
g57
g103
g44
tp885
Rp886
(dp887
bg439
sg37
(g604
g44
tp888
Rp889
(dp890
bg37
(g604
g424
tp891
Rp892
(dp893
bsg37
(g454
g117
g424
g103
tp894
Rp895
(dp896
bg37
(g460
g117
g103
g44
tp897
Rp898
(dp899
bsg37
(g38
(I43
tp900
Rp901
(dp902
bg103
g172
g44
tp903
Rp904
(dp905
bg37
(g826
g424
g103
g172
tp906
Rp907
(dp908
bsg37
(g778
g11
g117
g424
g57
tp909
Rp910
(dp911
bg37
(g616
g11
g117
g57
g44
tp912
Rp913
(dp914
bsg37
(g637
g117
g179
g44
tp915
Rp916
(dp917
bg37
(g643
g117
g424
g179
tp918
Rp919
(dp920
bsg37
(g469
g117
g424
g103
tp921
Rp922
(dp923
bg37
(g475
g117
g103
g44
tp924
Rp925
(dp926
bsg37
(g38
(I436907
tp927
Rp928
(dp929
bg103
g172
g44
tp930
Rp931
(dp932
bg37
(g595
g424
g103
g172
tp933
Rp934
(dp935
bsg37
(g117
g103
tp936
Rp937
(dp938
bg439
sg37
(g38
(I86
tp939
Rp940
(dp941
bg117
g424
g172
tp942
Rp943
(dp944
bg37
(g38
(I85
tp945
Rp946
(dp947
bg117
g172
g44
tp948
Rp949
(dp950
bsg37
(g117
g424
g103
g44
tp951
Rp952
(dp953
bg439
sg37
(g736
g117
g172
g44
tp954
Rp955
(dp956
bg37
(g610
g117
g424
g172
tp957
Rp958
(dp959
bsg37
(g38
(I128
tp960
Rp961
(dp962
bg117
g424
g103
g44
tp963
Rp964
(dp965
bg7
(g37
(g946
g117
g103
g386
tp966
Rp967
(dp968
bg37
(g826
g117
g424
g103
tp969
Rp970
(dp971
btp972
Rp973
(dp974
bsg37
(g11
g424
g57
g103
tp975
Rp976
(dp977
bg439
sg37
(g787
g11
g117
g424
g57
tp978
Rp979
(dp980
bg37
(g544
g11
g117
g57
g44
tp981
Rp982
(dp983
bsg37
(g694
g117
g103
g44
tp984
Rp985
(dp986
bg37
(g700
g117
g424
g103
tp987
Rp988
(dp989
bsg37
(g139
g424
tp990
Rp991
(dp992
bg267
sg37
(g778
g117
g424
g179
tp993
Rp994
(dp995
bg37
(g616
g117
g179
g44
tp996
Rp997
(dp998
bsg37
(g40
g424
g103
g179
tp999
Rp1000
(dp1001
bg37
(g103
g179
g44
tp1002
Rp1003
(dp1004
bsg37
(g454
g117
g424
g179
tp1005
Rp1006
(dp1007
bg37
(g460
g117
g179
g44
tp1008
Rp1009
(dp1010
bsg37
(g40
g117
g424
g103
g44
tp1011
Rp1012
(dp1013
bg442
sg37
(g901
g11
g117
g57
g44
tp1014
Rp1015
(dp1016
bg37
(g826
g11
g117
g424
g57
tp1017
Rp1018
(dp1019
bsg37
(g805
g11
g117
g424
g57
tp1020
Rp1021
(dp1022
bg37
(g559
g11
g117
g57
g44
tp1023
Rp1024
(dp1025
bsg37
(g11
g57
g172
tp1026
Rp1027
(dp1028
bg439
sg37
(g11
g117
g424
g57
tp1029
Rp1030
(dp1031
bg439
sg37
(g706
g103
g172
g44
tp1032
Rp1033
(dp1034
bg37
(g538
g424
g103
g172
tp1035
Rp1036
(dp1037
bsg37
(g649
g11
g57
g103
g44
tp1038
Rp1039
(dp1040
bg37
(g505
g11
g424
g57
g103
tp1041
Rp1042
(dp1043
bsg37
(g571
g117
g424
g172
tp1044
Rp1045
(dp1046
bg37
(g499
g117
g172
g44
tp1047
Rp1048
(dp1049
bsg451
g625
sg37
(g778
g117
g424
g172
tp1050
Rp1051
(dp1052
bg37
(g616
g117
g172
g44
tp1053
Rp1054
(dp1055
bsg37
(g715
g117
g179
g44
tp1056
Rp1057
(dp1058
bg37
(g520
g117
g424
g179
tp1059
Rp1060
(dp1061
bsg37
(g763
g117
g424
g103
g44
tp1062
Rp1063
(dp1064
bg7
(g37
(g487
g117
g103
g386
tp1065
Rp1066
(dp1067
bg37
(g643
g117
g424
g103
tp1068
Rp1069
(dp1070
btp1071
Rp1072
(dp1073
bsg37
(g469
g117
g424
g172
tp1074
Rp1075
(dp1076
bg37
(g475
g117
g172
g44
tp1077
Rp1078
(dp1079
bsg37
(g445
g11
g57
g103
g44
tp1080
Rp1081
(dp1082
bg37
(g40
g11
g424
g57
g103
tp1083
Rp1084
(dp1085
bsg37
(g715
g103
g179
g44
tp1086
Rp1087
(dp1088
bg37
(g520
g424
g103
g179
tp1089
Rp1090
(dp1091
bsg37
(g117
g172
g44
tp1092
Rp1093
(dp1094
bg439
sg37
(g901
g117
g179
g44
tp1095
Rp1096
(dp1097
bg37
(g826
g117
g424
g179
tp1098
Rp1099
(dp1100
bsg1003
g439
sg37
(g778
g424
g103
g172
tp1101
Rp1102
(dp1103
bg37
(g616
g103
g172
g44
tp1104
Rp1105
(dp1106
bsg37
(g940
g11
g117
g424
g57
tp1107
Rp1108
(dp1109
bg37
(g946
g11
g117
g57
g44
tp1110
Rp1111
(dp1112
bsg37
(g454
g11
g424
g57
g103
tp1113
Rp1114
(dp1115
bg37
(g460
g11
g57
g103
g44
tp1116
Rp1117
(dp1118
bsg37
(g469
g424
g103
g172
tp1119
Rp1120
(dp1121
bg37
(g475
g103
g172
g44
tp1122
Rp1123
(dp1124
bsg37
(g469
g11
g424
g57
g103
tp1125
Rp1126
(dp1127
bg37
(g475
g11
g57
g103
g44
tp1128
Rp1129
(dp1130
bsg37
(g40
g11
g117
g424
g57
tp1131
Rp1132
(dp1133
bg37
(g11
g117
g57
g44
tp1134
Rp1135
(dp1136
bsg37
(g736
g103
g179
g44
tp1137
Rp1138
(dp1139
bg37
(g610
g424
g103
g179
tp1140
Rp1141
(dp1142
bsg37
(g481
g117
g424
g103
tp1143
Rp1144
(dp1145
bg37
(g487
g117
g103
g44
tp1146
Rp1147
(dp1148
bsg37
(g685
g117
g424
g103
g44
tp1149
Rp1150
(dp1151
bg7
(g37
(g616
g117
g103
g386
tp1152
Rp1153
(dp1154
bg37
(g700
g117
g424
g103
tp1155
Rp1156
(dp1157
btp1158
Rp1159
(dp1160
bsg37
(g694
g103
g172
g44
tp1161
Rp1162
(dp1163
bg37
(g700
g424
g103
g172
tp1164
Rp1165
(dp1166
bsg37
(g454
g11
g117
g424
g57
tp1167
Rp1168
(dp1169
bg37
(g460
g11
g117
g57
g44
tp1170
Rp1171
(dp1172
bsg37
(g469
g424
g103
g179
tp1173
Rp1174
(dp1175
bg37
(g475
g103
g179
g44
tp1176
Rp1177
(dp1178
bsg37
(g445
g11
g117
g57
g44
tp1179
Rp1180
(dp1181
bg1132
sg37
(g628
g117
g424
g103
g44
tp1182
Rp1183
(dp1184
bg7
(g37
(g664
g117
g424
g103
tp1185
Rp1186
(dp1187
bg37
(g559
g117
g103
g386
tp1188
Rp1189
(dp1190
btp1191
Rp1192
(dp1193
bsg37
(g289
g44
tp1194
Rp1195
(dp1196
bg37
(g289
g424
tp1197
Rp1198
(dp1199
bsg37
(g787
g11
g424
g57
g103
tp1200
Rp1201
(dp1202
bg37
(g544
g11
g57
g103
g44
tp1203
Rp1204
(dp1205
bsg37
(g658
g103
g179
g44
tp1206
Rp1207
(dp1208
bg37
(g664
g424
g103
g179
tp1209
Rp1210
(dp1211
bsg37
(g481
g117
g424
g172
tp1212
Rp1213
(dp1214
bg37
(g487
g117
g172
g44
tp1215
Rp1216
(dp1217
bsg37
(g805
g117
g424
g103
tp1218
Rp1219
(dp1220
bg37
(g559
g117
g103
g44
tp1221
Rp1222
(dp1223
bsg37
(g38
(I256
tp1224
Rp1225
(dp1226
bg117
g424
g103
g44
tp1227
Rp1228
(dp1229
bg7
(g37
(g946
g117
g103
g44
tp1230
Rp1231
(dp1232
bg37
(g538
g117
g424
g103
tp1233
Rp1234
(dp1235
btp1236
Rp1237
(dp1238
bsg37
(g649
g103
g179
g44
tp1239
Rp1240
(dp1241
bg37
(g505
g424
g103
g179
tp1242
Rp1243
(dp1244
bsg37
(g658
g11
g117
g57
g44
tp1245
Rp1246
(dp1247
bg37
(g664
g11
g117
g424
g57
tp1248
Rp1249
(dp1250
bsg37
(g38
(I4096
tp1251
Rp1252
(dp1253
bg424
tp1254
Rp1255
(dp1256
bg37
(g1252
g44
tp1257
Rp1258
(dp1259
bsg37
(g445
g103
g179
g44
tp1260
Rp1261
(dp1262
bg1000
sg37
(g11
g57
g179
tp1263
Rp1264
(dp1265
bg439
sg37
(g571
g117
g424
g179
tp1266
Rp1267
(dp1268
bg37
(g499
g117
g179
g44
tp1269
Rp1270
(dp1271
bsg37
(g469
g11
g117
g424
g57
tp1272
Rp1273
(dp1274
bg37
(g475
g11
g117
g57
g44
tp1275
Rp1276
(dp1277
bsg37
(g787
g424
g103
g172
tp1278
Rp1279
(dp1280
bg37
(g544
g103
g172
g44
tp1281
Rp1282
(dp1283
bsg37
(g787
g117
g424
g172
tp1284
Rp1285
(dp1286
bg37
(g544
g117
g172
g44
tp1287
Rp1288
(dp1289
bsg37
(g532
g44
tp1290
Rp1291
(dp1292
bg37
(g532
g424
tp1293
Rp1294
(dp1295
bsg37
(g637
g117
g172
g44
tp1296
Rp1297
(dp1298
bg37
(g643
g117
g424
g172
tp1299
Rp1300
(dp1301
bsg37
(g38
(I1024
tp1302
Rp1303
(dp1304
bg117
g424
g103
g44
tp1305
Rp1306
(dp1307
bg7
(g37
(g520
g117
g424
g103
tp1308
Rp1309
(dp1310
bg37
(g544
g117
g103
g386
tp1311
Rp1312
(dp1313
btp1314
Rp1315
(dp1316
bsg37
(g1225
g424
tp1317
Rp1318
(dp1319
bg37
(g1225
g44
tp1320
Rp1321
(dp1322
bsg37
(g38
(I32
tp1323
Rp1324
(dp1325
bg44
tp1326
Rp1327
(dp1328
bg37
(g1324
g424
tp1329
Rp1330
(dp1331
bsg37
(g445
g117
g179
g44
tp1332
Rp1333
(dp1334
bg37
(g40
g117
g424
g179
tp1335
Rp1336
(dp1337
bsg37
(g940
g424
g103
g172
tp1338
Rp1339
(dp1340
bg37
(g946
g103
g172
g44
tp1341
Rp1342
(dp1343
bsg37
(g38
(I131072
tp1344
Rp1345
(dp1346
bg44
tp1347
Rp1348
(dp1349
bg37
(g1345
g424
tp1350
Rp1351
(dp1352
bsg37
(g940
g424
g103
g179
tp1353
Rp1354
(dp1355
bg37
(g946
g103
g179
g44
tp1356
Rp1357
(dp1358
bsg37
(g940
g117
g424
g103
tp1359
Rp1360
(dp1361
bg37
(g946
g117
g103
g44
tp1362
Rp1363
(dp1364
bsg37
(g454
g117
g424
g172
tp1365
Rp1366
(dp1367
bg37
(g460
g117
g172
g44
tp1368
Rp1369
(dp1370
bsg37
(g694
g103
g179
g44
tp1371
Rp1372
(dp1373
bg37
(g700
g424
g103
g179
tp1374
Rp1375
(dp1376
bsg37
(g117
g57
tp1377
Rp1378
(dp1379
bg439
sg37
(g1252
g117
g424
g103
g44
tp1380
Rp1381
(dp1382
bg7
(g37
(g643
g117
g424
g103
tp1383
Rp1384
(dp1385
bg37
(g460
g117
g103
g386
tp1386
Rp1387
(dp1388
btp1389
Rp1390
(dp1391
bsg37
(g940
g11
g424
g57
g103
tp1392
Rp1393
(dp1394
bg37
(g946
g11
g57
g103
g44
tp1395
Rp1396
(dp1397
bsg37
(g514
g44
tp1398
Rp1399
(dp1400
bg37
(g514
g424
tp1401
Rp1402
(dp1403
bsg37
(g481
g424
g103
g172
tp1404
Rp1405
(dp1406
bg37
(g487
g103
g172
g44
tp1407
Rp1408
(dp1409
bsg37
(g637
g11
g57
g103
g44
tp1410
Rp1411
(dp1412
bg37
(g643
g11
g424
g57
g103
tp1413
Rp1414
(dp1415
bsg37
(g736
g117
g103
g44
tp1416
Rp1417
(dp1418
bg37
(g610
g117
g424
g103
tp1419
Rp1420
(dp1421
bsg37
(g706
g11
g57
g103
g44
tp1422
Rp1423
(dp1424
bg37
(g538
g11
g424
g57
g103
tp1425
Rp1426
(dp1427
bsg37
(g706
g117
g179
g44
tp1428
Rp1429
(dp1430
bg37
(g538
g117
g424
g179
tp1431
Rp1432
(dp1433
bsg37
(g805
g117
g424
g172
tp1434
Rp1435
(dp1436
bg37
(g559
g117
g172
g44
tp1437
Rp1438
(dp1439
bsg37
(g637
g117
g103
g44
tp1440
Rp1441
(dp1442
bg37
(g643
g117
g424
g103
tp1443
Rp1444
(dp1445
bsg37
(g481
g11
g424
g57
g103
tp1446
Rp1447
(dp1448
bg37
(g487
g11
g57
g103
g44
tp1449
Rp1450
(dp1451
bsg37
(g736
g11
g117
g57
g44
tp1452
Rp1453
(dp1454
bg37
(g610
g11
g117
g424
g57
tp1455
Rp1456
(dp1457
bsg37
(g901
g117
g172
g44
tp1458
Rp1459
(dp1460
bg37
(g826
g117
g424
g172
tp1461
Rp1462
(dp1463
bsg37
(g571
g424
g103
g172
tp1464
Rp1465
(dp1466
bg37
(g499
g103
g172
g44
tp1467
Rp1468
(dp1469
bsg37
(g658
g117
g172
g44
tp1470
Rp1471
(dp1472
bg37
(g664
g117
g424
g172
tp1473
Rp1474
(dp1475
bsg37
(g706
g11
g117
g57
g44
tp1476
Rp1477
(dp1478
bg37
(g538
g11
g117
g424
g57
tp1479
Rp1480
(dp1481
bsg37
(g961
g44
tp1482
Rp1483
(dp1484
bg37
(g961
g424
tp1485
Rp1486
(dp1487
bsg37
(g736
g117
g179
g44
tp1488
Rp1489
(dp1490
bg37
(g610
g117
g424
g179
tp1491
Rp1492
(dp1493
bsg37
(g928
g103
g179
g44
tp1494
Rp1495
(dp1496
bg37
(g595
g424
g103
g179
tp1497
Rp1498
(dp1499
bsg37
(g1303
g424
tp1500
Rp1501
(dp1502
bg37
(g1303
g44
tp1503
Rp1504
(dp1505
bsg37
(g694
g117
g179
g44
tp1506
Rp1507
(dp1508
bg37
(g700
g117
g424
g179
tp1509
Rp1510
(dp1511
bsg424
g73
sg583
g37
(g117
g103
g44
tp1512
Rp1513
(dp1514
bsg37
(g637
g103
g172
g44
tp1515
Rp1516
(dp1517
bg37
(g643
g424
g103
g172
tp1518
Rp1519
(dp1520
bsg37
(g454
g424
g103
g172
tp1521
Rp1522
(dp1523
bg37
(g460
g103
g172
g44
tp1524
Rp1525
(dp1526
bsg1084
g886
sg37
(g658
g117
g179
g44
tp1527
Rp1528
(dp1529
bg37
(g664
g117
g424
g179
tp1530
Rp1531
(dp1532
bsg37
(g715
g117
g103
g44
tp1533
Rp1534
(dp1535
bg37
(g520
g117
g424
g103
tp1536
Rp1537
(dp1538
bsg37
(g715
g11
g57
g103
g44
tp1539
Rp1540
(dp1541
bg37
(g520
g11
g424
g57
g103
tp1542
Rp1543
(dp1544
bsg37
(g424
g103
g172
tp1545
Rp1546
(dp1547
bg439
sg37
(g670
g424
tp1548
Rp1549
(dp1550
bg37
(g670
g44
tp1551
Rp1552
(dp1553
bsg37
(g424
g103
g179
tp1554
Rp1555
(dp1556
bg439
sg8
(S'p5'
p1557
tp1558
Rp1559
(dp1560
g13
g0
(g14
g15
(dp1561
g60
Nsg61
Nsg62
Nsg21
Nsg22
Nsg63
Nsg25
Nsg48
Nsg64
Nsg49
Nsg29
Nsg30
I01
sg32
Nsg31
Nsg23
Nsg33
Nsg65
Nstp1562
Rp1563
sbg44
sg37
(g715
g117
g172
g44
tp1564
Rp1565
(dp1566
bg37
(g520
g117
g424
g172
tp1567
Rp1568
(dp1569
bsg37
(g901
g103
g179
g44
tp1570
Rp1571
(dp1572
bg37
(g826
g424
g103
g179
tp1573
Rp1574
(dp1575
bsg37
(g11
g117
g57
g44
tp1576
Rp1577
(dp1578
bg439
sg37
(g706
g117
g103
g44
tp1579
Rp1580
(dp1581
bg37
(g538
g117
g424
g103
tp1582
Rp1583
(dp1584
bsg37
(g117
g424
g103
tp1585
Rp1586
(dp1587
bg439
sg37
(g103
g80
tp1588
Rp1589
(dp1590
bg439
sg37
(g1324
g117
g424
g103
g44
tp1591
Rp1592
(dp1593
bg7
(g37
(g664
g117
g424
g103
tp1594
Rp1595
(dp1596
bg37
(g475
g117
g103
g386
tp1597
Rp1598
(dp1599
btp1600
Rp1601
(dp1602
bsg73
g1559
sg37
(g658
g117
g103
g44
tp1603
Rp1604
(dp1605
bg37
(g664
g117
g424
g103
tp1606
Rp1607
(dp1608
bsg37
(g940
g117
g424
g179
tp1609
Rp1610
(dp1611
bg37
(g946
g117
g179
g44
tp1612
Rp1613
(dp1614
bsg37
(g658
g11
g57
g103
g44
tp1615
Rp1616
(dp1617
bg37
(g664
g11
g424
g57
g103
tp1618
Rp1619
(dp1620
bsg1336
g436
sg37
(g805
g11
g424
g57
g103
tp1621
Rp1622
(dp1623
bg37
(g559
g11
g57
g103
g44
tp1624
Rp1625
(dp1626
bsg37
(g1345
g117
g424
g103
g44
tp1627
Rp1628
(dp1629
bg7
(g37
(g499
g117
g103
g386
tp1630
Rp1631
(dp1632
bg37
(g700
g117
g424
g103
tp1633
Rp1634
(dp1635
btp1636
Rp1637
(dp1638
bsg37
(g928
g11
g57
g103
g44
tp1639
Rp1640
(dp1641
bg37
(g595
g11
g424
g57
g103
tp1642
Rp1643
(dp1644
bsg44
g424
sg37
(g805
g424
g103
g172
tp1645
Rp1646
(dp1647
bg37
(g559
g103
g172
g44
tp1648
Rp1649
(dp1650
bsg37
(g901
g117
g103
g44
tp1651
Rp1652
(dp1653
bg37
(g826
g117
g424
g103
tp1654
Rp1655
(dp1656
bsg37
(g706
g117
g172
g44
tp1657
Rp1658
(dp1659
bg37
(g538
g117
g424
g172
tp1660
Rp1661
(dp1662
bsg37
(g787
g424
g103
g179
tp1663
Rp1664
(dp1665
bg37
(g544
g103
g179
g44
tp1666
Rp1667
(dp1668
bsg37
(g901
g11
g57
g103
g44
tp1669
Rp1670
(dp1671
bg37
(g826
g11
g424
g57
g103
tp1672
Rp1673
(dp1674
bsg37
(g571
g11
g117
g424
g57
tp1675
Rp1676
(dp1677
bg37
(g499
g11
g117
g57
g44
tp1678
Rp1679
(dp1680
bsg37
(g11
g103
tp1681
Rp1682
(dp1683
bg439
sg37
(g481
g11
g117
g424
g57
tp1684
Rp1685
(dp1686
bg37
(g487
g11
g117
g57
g44
tp1687
Rp1688
(dp1689
bs(dp1690
g8
(S'z2428'
p1691
tp1692
Rp1693
(dp1694
g13
g0
(g14
g15
(dp1695
g17
Nsg29
Nsg30
I01
sg20
Nsg21
Nsg31
Nsg23
Nsg33
Nsg24
Nsg32
Nsg47
Nsg34
Nsg22
Nsg27
Nsg19
Nstp1696
Rp1697
sbg439
sg8
(S'z8186'
p1698
tp1699
Rp1700
(dp1701
g13
g0
(g14
g15
(dp1702
g17
Nsg29
Nsg30
I01
sg20
Nsg21
Nsg31
Nsg23
Nsg33
Nsg24
Nsg32
Nsg47
Nsg34
Nsg22
Nsg27
Nsg19
Nstp1703
Rp1704
sbg439
sg8
(S'z4750'
p1705
tp1706
Rp1707
(dp1708
g13
g0
(g14
g15
(dp1709
g60
Nsg61
Nsg62
Nsg21
Nsg22
Nsg63
Nsg25
Nsg48
Nsg64
Nsg49
Nsg29
Nsg30
I01
sg32
Nsg31
Nsg23
Nsg33
Nsg65
Nstp1710
Rp1711
sbg439
sg8
(S'z4448'
p1712
tp1713
Rp1714
(dp1715
g13
g0
(g14
g15
(dp1716
g17
Nsg29
Nsg30
I01
sg20
Nsg21
Nsg31
Nsg23
Nsg33
Nsg24
Nsg32
Nsg47
Nsg34
Nsg22
Nsg27
Nsg19
Nstp1717
Rp1718
sbg439
sg8
(S'z3234'
p1719
tp1720
Rp1721
(dp1722
g13
g0
(g14
g15
(dp1723
g60
Nsg61
Nsg62
Nsg21
Nsg22
Nsg63
Nsg25
Nsg48
Nsg64
Nsg49
Nsg29
Nsg30
I01
sg32
Nsg31
Nsg23
Nsg33
Nsg65
Nstp1724
Rp1725
sbg439
sg8
(S'z4244'
p1726
tp1727
Rp1728
(dp1729
g13
g0
(g14
g15
(dp1730
g17
Nsg29
Nsg30
I01
sg20
Nsg21
Nsg31
Nsg23
Nsg33
Nsg24
Nsg32
Nsg47
Nsg34
Nsg22
Nsg27
Nsg19
Nstp1731
Rp1732
sbg439
sg8
(S'z3034'
p1733
tp1734
Rp1735
(dp1736
g13
g0
(g14
g15
(dp1737
g17
Nsg19
Nsg20
Nsg21
Nsg22
Nsg24
Nsg47
Nsg48
Nsg27
Nsg49
Nsg29
Nsg30
I01
sg32
Nsg31
Nsg23
Nsg33
Nsg34
Nstp1738
Rp1739
sbg439
sg8
(S'z1718'
p1740
tp1741
Rp1742
(dp1743
g13
g0
(g14
g15
(dp1744
g17
Nsg29
Nsg30
I01
sg20
Nsg21
Nsg31
Nsg23
Nsg33
Nsg24
Nsg32
Nsg47
Nsg34
Nsg22
Nsg27
Nsg19
Nstp1745
Rp1746
sbg439
sg8
(S'z1820'
p1747
tp1748
Rp1749
(dp1750
g13
g0
(g14
g15
(dp1751
g29
Nsg60
Nsg30
I01
sg62
Nsg21
Nsg31
Nsg23
Nsg33
Nsg63
Nsg32
Nsg25
Nsg65
Nsg22
Nsg64
Nsg61
Nstp1752
Rp1753
sbg439
sg8
(S'z1517'
p1754
tp1755
Rp1756
(dp1757
g13
g0
(g14
g15
(dp1758
g29
Nsg60
Nsg30
I01
sg62
Nsg21
Nsg31
Nsg23
Nsg33
Nsg63
Nsg32
Nsg25
Nsg65
Nsg22
Nsg64
Nsg61
Nstp1759
Rp1760
sbg439
sg8
(S'z7980'
p1761
tp1762
Rp1763
(dp1764
g13
g0
(g14
g15
(dp1765
g17
Nsg19
Nsg20
Nsg21
Nsg22
Nsg24
Nsg47
Nsg48
Nsg27
Nsg49
Nsg29
Nsg30
I01
sg32
Nsg31
Nsg23
Nsg33
Nsg34
Nstp1766
Rp1767
sbg439
sg8
(S'z2124'
p1768
tp1769
Rp1770
(dp1771
g13
g0
(g14
g15
(dp1772
g17
Nsg29
Nsg30
I01
sg20
Nsg21
Nsg31
Nsg23
Nsg33
Nsg24
Nsg32
Nsg47
Nsg34
Nsg22
Nsg27
Nsg19
Nstp1773
Rp1774
sbg439
sg8
(S'p19'
p1775
tp1776
Rp1777
(dp1778
g13
g0
(g14
g15
(dp1779
g29
Nsg60
Nsg30
I01
sg62
Nsg21
Nsg31
Nsg23
Nsg33
Nsg63
Nsg32
Nsg25
Nsg65
Nsg22
Nsg64
Nsg61
Nstp1780
Rp1781
sbg439
sg8
(S'z2631'
p1782
tp1783
Rp1784
(dp1785
g13
g0
(g14
g15
(dp1786
g17
Nsg29
Nsg30
I01
sg20
Nsg21
Nsg31
Nsg23
Nsg33
Nsg24
Nsg32
Nsg47
Nsg34
Nsg22
Nsg27
Nsg19
Nstp1787
Rp1788
sbg439
sg8
(S'z5456'
p1789
tp1790
Rp1791
(dp1792
g13
g0
(g14
g15
(dp1793
g29
Nsg60
Nsg30
I01
sg62
Nsg21
Nsg31
Nsg23
Nsg33
Nsg63
Nsg32
Nsg25
Nsg65
Nsg22
Nsg64
Nsg61
Nstp1794
Rp1795
sbg439
sg8
(S'z3840'
p1796
tp1797
Rp1798
(dp1799
g13
g0
(g14
g15
(dp1800
g60
Nsg61
Nsg62
Nsg21
Nsg22
Nsg63
Nsg25
Nsg48
Nsg64
Nsg49
Nsg29
Nsg30
I01
sg32
Nsg31
Nsg23
Nsg33
Nsg65
Nstp1801
Rp1802
sbg439
sg8
(S'z7175'
p1803
tp1804
Rp1805
(dp1806
g13
g0
(g14
g15
(dp1807
g29
Nsg60
Nsg30
I01
sg62
Nsg21
Nsg31
Nsg23
Nsg33
Nsg63
Nsg32
Nsg25
Nsg65
Nsg22
Nsg64
Nsg61
Nstp1808
Rp1809
sbg439
sg8
(S'q46'
p1810
tp1811
Rp1812
(dp1813
g13
g0
(g14
g15
(dp1814
g29
Nsg60
Nsg30
I01
sg21
Nsg31
Nsg23
Nsg33
Nsg32
Nsg22
Nstp1815
Rp1816
sbg439
sg8
(S'z4752'
p1817
tp1818
Rp1819
(dp1820
g13
g0
(g14
g15
(dp1821
g29
Nsg60
Nsg30
I01
sg62
Nsg21
Nsg31
Nsg23
Nsg33
Nsg63
Nsg32
Nsg25
Nsg65
Nsg22
Nsg64
Nsg61
Nstp1822
Rp1823
sbg439
sg8
(S'z7677'
p1824
tp1825
Rp1826
(dp1827
g13
g0
(g14
g15
(dp1828
g17
Nsg29
Nsg30
I01
sg20
Nsg21
Nsg31
Nsg23
Nsg33
Nsg24
Nsg32
Nsg47
Nsg34
Nsg22
Nsg27
Nsg19
Nstp1829
Rp1830
sbg439
sg8
(S'z3839'
p1831
tp1832
Rp1833
(dp1834
g13
g0
(g14
g15
(dp1835
g17
Nsg19
Nsg20
Nsg21
Nsg22
Nsg24
Nsg47
Nsg48
Nsg27
Nsg49
Nsg29
Nsg30
I01
sg32
Nsg31
Nsg23
Nsg33
Nsg34
Nstp1836
Rp1837
sbg439
sg8
(S'z7477'
p1838
tp1839
Rp1840
(dp1841
g13
g0
(g14
g15
(dp1842
g29
Nsg60
Nsg30
I01
sg62
Nsg21
Nsg31
Nsg23
Nsg33
Nsg63
Nsg32
Nsg25
Nsg65
Nsg22
Nsg64
Nsg61
Nstp1843
Rp1844
sbg439
sg8
(S'z97100'
p1845
tp1846
Rp1847
(dp1848
g13
g0
(g14
g15
(dp1849
g29
Nsg60
Nsg30
I01
sg21
Nsg31
Nsg23
Nsg33
Nsg32
Nsg22
Nstp1850
Rp1851
sbg439
sg8
(S'z6869'
p1852
tp1853
Rp1854
(dp1855
g13
g0
(g14
g15
(dp1856
g29
Nsg60
Nsg30
I01
sg62
Nsg21
Nsg31
Nsg23
Nsg33
Nsg63
Nsg32
Nsg25
Nsg65
Nsg22
Nsg64
Nsg61
Nstp1857
Rp1858
sbg439
sg8
(S'p42'
p1859
tp1860
Rp1861
(dp1862
g13
g0
(g14
g15
(dp1863
g29
Nsg60
Nsg30
I01
sg62
Nsg21
Nsg31
Nsg23
Nsg33
Nsg63
Nsg32
Nsg25
Nsg65
Nsg22
Nsg64
Nsg61
Nstp1864
Rp1865
sbg439
sg8
(S'z1617'
p1866
tp1867
Rp1868
(dp1869
g13
g0
(g14
g15
(dp1870
g60
Nsg61
Nsg62
Nsg21
Nsg22
Nsg63
Nsg25
Nsg48
Nsg64
Nsg49
Nsg29
Nsg30
I01
sg32
Nsg31
Nsg23
Nsg33
Nsg65
Nstp1871
Rp1872
sbg439
sg8
(S'z6163'
p1873
tp1874
Rp1875
(dp1876
g13
g0
(g14
g15
(dp1877
g29
Nsg60
Nsg30
I01
sg62
Nsg21
Nsg31
Nsg23
Nsg33
Nsg63
Nsg32
Nsg25
Nsg65
Nsg22
Nsg64
Nsg61
Nstp1878
Rp1879
sbg439
sg8
(S'z1722'
p1880
tp1881
Rp1882
(dp1883
g13
g0
(g14
g15
(dp1884
g17
Nsg29
Nsg30
I01
sg20
Nsg21
Nsg31
Nsg23
Nsg33
Nsg24
Nsg32
Nsg47
Nsg34
Nsg22
Nsg27
Nsg19
Nstp1885
Rp1886
sbg439
sg8
(S'z6771'
p1887
tp1888
Rp1889
(dp1890
g13
g0
(g14
g15
(dp1891
g17
Nsg19
Nsg20
Nsg21
Nsg22
Nsg23
Nsg24
Nsg25
Nsg26
Nsg27
Nsg28
Nsg29
Nsg30
I01
sg31
Nsg32
Nsg33
Nsg34
Nstp1892
Rp1893
sbg439
sg8
(S'z4043'
p1894
tp1895
Rp1896
(dp1897
g13
g0
(g14
g15
(dp1898
g17
Nsg19
Nsg20
Nsg21
Nsg22
Nsg24
Nsg47
Nsg48
Nsg27
Nsg49
Nsg29
Nsg30
I01
sg32
Nsg31
Nsg23
Nsg33
Nsg34
Nstp1899
Rp1900
sbg439
sg8
(S'z1822'
p1901
tp1902
Rp1903
(dp1904
g13
g0
(g14
g15
(dp1905
g17
Nsg29
Nsg30
I01
sg20
Nsg21
Nsg31
Nsg23
Nsg33
Nsg24
Nsg32
Nsg47
Nsg34
Nsg22
Nsg27
Nsg19
Nstp1906
Rp1907
sbg439
sg8
(S'z4647'
p1908
tp1909
Rp1910
(dp1911
g13
g0
(g14
g15
(dp1912
g17
Nsg29
Nsg30
I01
sg20
Nsg21
Nsg31
Nsg23
Nsg33
Nsg24
Nsg32
Nsg47
Nsg34
Nsg22
Nsg27
Nsg19
Nstp1913
Rp1914
sbg439
sg8
(S'q39'
p1915
tp1916
Rp1917
(dp1918
g13
g0
(g14
g15
(dp1919
g29
Nsg60
Nsg30
I01
sg21
Nsg31
Nsg23
Nsg33
Nsg32
Nsg22
Nstp1920
Rp1921
sbg439
sg8
(S'z8486'
p1922
tp1923
Rp1924
(dp1925
g13
g0
(g14
g15
(dp1926
g17
Nsg29
Nsg30
I01
sg20
Nsg21
Nsg31
Nsg23
Nsg33
Nsg24
Nsg32
Nsg47
Nsg34
Nsg22
Nsg27
Nsg19
Nstp1927
Rp1928
sbg439
sg8
(S'q35'
p1929
tp1930
Rp1931
(dp1932
g13
g0
(g14
g15
(dp1933
g60
Nsg61
Nsg62
Nsg21
Nsg22
Nsg32
Nsg48
Nsg63
Nsg49
Nsg64
Nsg29
Nsg30
I01
sg31
Nsg23
Nsg33
Nsg65
Nstp1934
Rp1935
sbg439
sg8
(S'z3135'
p1936
tp1937
Rp1938
(dp1939
g13
g0
(g14
g15
(dp1940
g60
Nsg61
Nsg62
Nsg21
Nsg22
Nsg63
Nsg25
Nsg48
Nsg64
Nsg49
Nsg29
Nsg30
I01
sg32
Nsg31
Nsg23
Nsg33
Nsg65
Nstp1941
Rp1942
sbg439
sg8
(S'z7072'
p1943
tp1944
Rp1945
(dp1946
g13
g0
(g14
g15
(dp1947
g29
Nsg60
Nsg30
I01
sg62
Nsg21
Nsg31
Nsg23
Nsg33
Nsg63
Nsg32
Nsg25
Nsg65
Nsg22
Nsg64
Nsg61
Nstp1948
Rp1949
sbg439
sg8
(S'z5961'
p1950
tp1951
Rp1952
(dp1953
g13
g0
(g14
g15
(dp1954
g60
Nsg61
Nsg62
Nsg21
Nsg22
Nsg63
Nsg25
Nsg48
Nsg64
Nsg49
Nsg29
Nsg30
I01
sg32
Nsg31
Nsg23
Nsg33
Nsg65
Nstp1955
Rp1956
sbg439
sg8
(S'z6468'
p1957
tp1958
Rp1959
(dp1960
g13
g0
(g14
g15
(dp1961
g17
Nsg29
Nsg30
I01
sg20
Nsg21
Nsg31
Nsg23
Nsg33
Nsg24
Nsg32
Nsg47
Nsg34
Nsg22
Nsg27
Nsg19
Nstp1962
Rp1963
sbg439
sg8
(S'z1621'
p1964
tp1965
Rp1966
(dp1967
g13
g0
(g14
g15
(dp1968
g17
Nsg29
Nsg30
I01
sg20
Nsg21
Nsg31
Nsg23
Nsg33
Nsg24
Nsg32
Nsg47
Nsg34
Nsg22
Nsg27
Nsg19
Nstp1969
Rp1970
sbg439
sg8
(S'z4952'
p1971
tp1972
Rp1973
(dp1974
g13
g0
(g14
g15
(dp1975
g17
Nsg29
Nsg19
Nsg20
Nsg21
Nsg31
Nsg23
Nsg33
Nsg24
Nsg32
Nsg47
Nsg34
Nsg22
Nsg27
Nsg30
I01
stp1976
Rp1977
sbg439
sg8
(S'z1620'
p1978
tp1979
Rp1980
(dp1981
g13
g0
(g14
g15
(dp1982
g29
Nsg60
Nsg30
I01
sg62
Nsg21
Nsg31
Nsg23
Nsg33
Nsg63
Nsg32
Nsg25
Nsg65
Nsg22
Nsg64
Nsg61
Nstp1983
Rp1984
sbg439
sg8
(S'q48'
p1985
tp1986
Rp1987
(dp1988
g13
g0
(g14
g15
(dp1989
g29
Nsg60
Nsg30
I01
sg21
Nsg31
Nsg23
Nsg33
Nsg32
Nsg22
Nstp1990
Rp1991
sbg439
sg8
(S'z4145'
p1992
tp1993
Rp1994
(dp1995
g13
g0
(g14
g15
(dp1996
g17
Nsg29
Nsg30
I01
sg20
Nsg21
Nsg31
Nsg23
Nsg33
Nsg24
Nsg32
Nsg47
Nsg34
Nsg22
Nsg27
Nsg19
Nstp1997
Rp1998
sbg439
sg8
(S'z4850'
p1999
tp2000
Rp2001
(dp2002
g13
g0
(g14
g15
(dp2003
g17
Nsg19
Nsg20
Nsg21
Nsg22
Nsg24
Nsg47
Nsg48
Nsg27
Nsg49
Nsg29
Nsg30
I01
sg32
Nsg31
Nsg23
Nsg33
Nsg34
Nstp2004
Rp2005
sbg439
sg8
(S'z1214'
p2006
tp2007
Rp2008
(dp2009
g13
g0
(g14
g15
(dp2010
g29
Nsg60
Nsg30
I01
sg62
Nsg21
Nsg31
Nsg23
Nsg33
Nsg63
Nsg32
Nsg25
Nsg65
Nsg22
Nsg64
Nsg61
Nstp2011
Rp2012
sbg439
sg8
(S'z4144'
p2013
tp2014
Rp2015
(dp2016
g13
g0
(g14
g15
(dp2017
g17
Nsg29
Nsg30
I01
sg20
Nsg21
Nsg31
Nsg23
Nsg33
Nsg24
Nsg32
Nsg47
Nsg34
Nsg22
Nsg27
Nsg19
Nstp2018
Rp2019
sbg439
sg8
(S'z4648'
p2020
tp2021
Rp2022
(dp2023
g13
g0
(g14
g15
(dp2024
g17
Nsg29
Nsg30
I01
sg20
Nsg21
Nsg31
Nsg23
Nsg33
Nsg24
Nsg32
Nsg47
Nsg34
Nsg22
Nsg27
Nsg19
Nstp2025
Rp2026
sbg439
sg8
(S'p44'
p2027
tp2028
Rp2029
(dp2030
g13
g0
(g14
g15
(dp2031
g29
Nsg60
Nsg30
I01
sg62
Nsg21
Nsg31
Nsg23
Nsg33
Nsg63
Nsg32
Nsg25
Nsg65
Nsg22
Nsg64
Nsg61
Nstp2032
Rp2033
sbg439
sg8
(S'z3338'
p2034
tp2035
Rp2036
(dp2037
g13
g0
(g14
g15
(dp2038
g29
Nsg60
Nsg30
I01
sg62
Nsg21
Nsg31
Nsg23
Nsg33
Nsg63
Nsg32
Nsg25
Nsg65
Nsg22
Nsg64
Nsg61
Nstp2039
Rp2040
sbg439
sg8
(S'z6366'
p2041
tp2042
Rp2043
(dp2044
g13
g0
(g14
g15
(dp2045
g29
Nsg60
Nsg30
I01
sg62
Nsg21
Nsg31
Nsg23
Nsg33
Nsg63
Nsg32
Nsg25
Nsg65
Nsg22
Nsg64
Nsg61
Nstp2046
Rp2047
sbg439
sg8
(S'z4649'
p2048
tp2049
Rp2050
(dp2051
g13
g0
(g14
g15
(dp2052
g29
Nsg60
Nsg30
I01
sg62
Nsg21
Nsg31
Nsg23
Nsg33
Nsg63
Nsg32
Nsg25
Nsg65
Nsg22
Nsg64
Nsg61
Nstp2053
Rp2054
sbg439
sg8
(S'z4045'
p2055
tp2056
Rp2057
(dp2058
g13
g0
(g14
g15
(dp2059
g17
Nsg29
Nsg30
I01
sg20
Nsg21
Nsg31
Nsg23
Nsg33
Nsg24
Nsg32
Nsg47
Nsg34
Nsg22
Nsg27
Nsg19
Nstp2060
Rp2061
sbg439
sg8
(S'z3742'
p2062
tp2063
Rp2064
(dp2065
g13
g0
(g14
g15
(dp2066
g17
Nsg29
Nsg30
I01
sg20
Nsg21
Nsg31
Nsg23
Nsg33
Nsg24
Nsg32
Nsg47
Nsg34
Nsg22
Nsg27
Nsg19
Nstp2067
Rp2068
sbg439
sg8
(S'z5054'
p2069
tp2070
Rp2071
(dp2072
g13
g0
(g14
g15
(dp2073
g29
Nsg60
Nsg30
I01
sg62
Nsg21
Nsg31
Nsg23
Nsg33
Nsg63
Nsg32
Nsg25
Nsg65
Nsg22
Nsg64
Nsg61
Nstp2074
Rp2075
sbg439
sg8
(S'z9192'
p2076
tp2077
Rp2078
(dp2079
g13
g0
(g14
g15
(dp2080
g60
Nsg61
Nsg62
Nsg21
Nsg22
Nsg63
Nsg25
Nsg48
Nsg64
Nsg49
Nsg29
Nsg30
I01
sg32
Nsg31
Nsg23
Nsg33
Nsg65
Nstp2081
Rp2082
sbg439
sg8
(S'z9294'
p2083
tp2084
Rp2085
(dp2086
g13
g0
(g14
g15
(dp2087
g60
Nsg61
Nsg62
Nsg21
Nsg22
Nsg63
Nsg25
Nsg48
Nsg64
Nsg49
Nsg29
Nsg30
I01
sg32
Nsg31
Nsg23
Nsg33
Nsg65
Nstp2088
Rp2089
sbg439
sg8
(S'z4546'
p2090
tp2091
Rp2092
(dp2093
g13
g0
(g14
g15
(dp2094
g29
Nsg60
Nsg30
I01
sg62
Nsg21
Nsg31
Nsg23
Nsg33
Nsg63
Nsg32
Nsg25
Nsg65
Nsg22
Nsg64
Nsg61
Nstp2095
Rp2096
sbg439
sg8
(S'z8789'
p2097
tp2098
Rp2099
(dp2100
g13
g0
(g14
g15
(dp2101
g17
Nsg19
Nsg20
Nsg21
Nsg22
Nsg24
Nsg47
Nsg48
Nsg27
Nsg49
Nsg29
Nsg30
I01
sg32
Nsg31
Nsg23
Nsg33
Nsg34
Nstp2102
Rp2103
sbg439
sg8
(S'z8687'
p2104
tp2105
Rp2106
(dp2107
g13
g0
(g14
g15
(dp2108
g60
Nsg61
Nsg62
Nsg21
Nsg22
Nsg63
Nsg25
Nsg48
Nsg64
Nsg49
Nsg29
Nsg30
I01
sg32
Nsg31
Nsg23
Nsg33
Nsg65
Nstp2109
Rp2110
sbg439
sg8
(S'z2729'
p2111
tp2112
Rp2113
(dp2114
g13
g0
(g14
g15
(dp2115
g17
Nsg29
Nsg30
I01
sg20
Nsg21
Nsg31
Nsg23
Nsg33
Nsg24
Nsg32
Nsg47
Nsg34
Nsg22
Nsg27
Nsg19
Nstp2116
Rp2117
sbg439
sg8
(S'z69'
p2118
tp2119
Rp2120
(dp2121
g13
g0
(g14
g15
(dp2122
g29
Nsg60
Nsg30
I01
sg62
Nsg21
Nsg31
Nsg23
Nsg33
Nsg63
Nsg32
Nsg25
Nsg65
Nsg22
Nsg64
Nsg61
Nstp2123
Rp2124
sbg439
sg8
(S'z9295'
p2125
tp2126
Rp2127
(dp2128
g13
g0
(g14
g15
(dp2129
g17
Nsg29
Nsg30
I01
sg20
Nsg21
Nsg31
Nsg23
Nsg33
Nsg24
Nsg32
Nsg47
Nsg34
Nsg22
Nsg27
Nsg19
Nstp2130
Rp2131
sbg439
sg8
(S'z8587'
p2132
tp2133
Rp2134
(dp2135
g13
g0
(g14
g15
(dp2136
g29
Nsg60
Nsg30
I01
sg62
Nsg21
Nsg31
Nsg23
Nsg33
Nsg63
Nsg32
Nsg25
Nsg65
Nsg22
Nsg64
Nsg61
Nstp2137
Rp2138
sbg439
sg8
(S'z6267'
p2139
tp2140
Rp2141
(dp2142
g13
g0
(g14
g15
(dp2143
g17
Nsg29
Nsg30
I01
sg20
Nsg21
Nsg31
Nsg23
Nsg33
Nsg24
Nsg32
Nsg47
Nsg34
Nsg22
Nsg27
Nsg19
Nstp2144
Rp2145
sbg439
sg8
(S'q41'
p2146
tp2147
Rp2148
(dp2149
g13
g0
(g14
g15
(dp2150
g60
Nsg61
Nsg62
Nsg21
Nsg22
Nsg32
Nsg48
Nsg63
Nsg49
Nsg64
Nsg29
Nsg30
I01
sg31
Nsg23
Nsg33
Nsg65
Nstp2151
Rp2152
sbg439
sg8
(S'z2831'
p2153
tp2154
Rp2155
(dp2156
g13
g0
(g14
g15
(dp2157
g29
Nsg60
Nsg30
I01
sg62
Nsg21
Nsg31
Nsg23
Nsg33
Nsg63
Nsg32
Nsg25
Nsg65
Nsg22
Nsg64
Nsg61
Nstp2158
Rp2159
sbg439
sg8
(S'q11'
p2160
tp2161
Rp2162
(dp2163
g13
g0
(g14
g15
(dp2164
g60
Nsg61
Nsg62
Nsg21
Nsg22
Nsg32
Nsg25
Nsg48
Nsg63
Nsg49
Nsg64
Nsg29
Nsg30
I01
sg31
Nsg23
Nsg33
Nsg65
Nstp2165
Rp2166
sbg439
sg8
(S'z5861'
p2167
tp2168
Rp2169
(dp2170
g13
g0
(g14
g15
(dp2171
g17
Nsg29
Nsg30
I01
sg20
Nsg21
Nsg31
Nsg23
Nsg33
Nsg24
Nsg32
Nsg47
Nsg34
Nsg22
Nsg27
Nsg19
Nstp2172
Rp2173
sbg439
sg8
(S'z8588'
p2174
tp2175
Rp2176
(dp2177
g13
g0
(g14
g15
(dp2178
g17
Nsg19
Nsg20
Nsg21
Nsg22
Nsg24
Nsg47
Nsg48
Nsg27
Nsg49
Nsg29
Nsg30
I01
sg32
Nsg31
Nsg23
Nsg33
Nsg34
Nstp2179
Rp2180
sbg439
sg8
(S'z8081'
p2181
tp2182
Rp2183
(dp2184
g13
g0
(g14
g15
(dp2185
g29
Nsg60
Nsg30
I01
sg62
Nsg21
Nsg31
Nsg23
Nsg33
Nsg63
Nsg32
Nsg25
Nsg65
Nsg22
Nsg64
Nsg61
Nstp2186
Rp2187
sbg439
sg8
(S'z7277'
p2188
tp2189
Rp2190
(dp2191
g13
g0
(g14
g15
(dp2192
g29
Nsg60
Nsg30
I01
sg21
Nsg31
Nsg23
Nsg33
Nsg32
Nsg22
Nstp2193
Rp2194
sbg439
sg8
(S'p30'
p2195
tp2196
Rp2197
(dp2198
g13
g0
(g14
g15
(dp2199
g29
Nsg60
Nsg30
I01
sg62
Nsg21
Nsg31
Nsg23
Nsg33
Nsg63
Nsg32
Nsg25
Nsg65
Nsg22
Nsg64
Nsg61
Nstp2200
Rp2201
sbg439
sg8
(S'z6970'
p2202
tp2203
Rp2204
(dp2205
g13
g0
(g14
g15
(dp2206
g17
Nsg29
Nsg19
Nsg20
Nsg21
Nsg31
Nsg23
Nsg33
Nsg24
Nsg32
Nsg47
Nsg34
Nsg22
Nsg27
Nsg30
I01
stp2207
Rp2208
sbg439
sg8
(S'z3944'
p2209
tp2210
Rp2211
(dp2212
g13
g0
(g14
g15
(dp2213
g29
Nsg60
Nsg30
I01
sg62
Nsg21
Nsg31
Nsg23
Nsg33
Nsg63
Nsg32
Nsg25
Nsg65
Nsg22
Nsg64
Nsg61
Nstp2214
Rp2215
sbg439
sg8
(S'z6872'
p2216
tp2217
Rp2218
(dp2219
g13
g0
(g14
g15
(dp2220
g29
Nsg60
Nsg30
I01
sg62
Nsg21
Nsg31
Nsg23
Nsg33
Nsg63
Nsg32
Nsg25
Nsg65
Nsg22
Nsg64
Nsg61
Nstp2221
Rp2222
sbg439
sg8
(S'q13'
p2223
tp2224
Rp2225
(dp2226
g13
g0
(g14
g15
(dp2227
g29
Nsg60
Nsg30
I01
sg62
Nsg21
Nsg31
Nsg23
Nsg33
Nsg63
Nsg32
Nsg25
Nsg65
Nsg22
Nsg64
Nsg61
Nstp2228
Rp2229
sbg439
sg8
(S'z2829'
p2230
tp2231
Rp2232
(dp2233
g13
g0
(g14
g15
(dp2234
g17
Nsg19
Nsg20
Nsg21
Nsg22
Nsg24
Nsg47
Nsg48
Nsg27
Nsg49
Nsg29
Nsg30
I01
sg32
Nsg31
Nsg23
Nsg33
Nsg34
Nstp2235
Rp2236
sbg439
sg8
(S'z4955'
p2237
tp2238
Rp2239
(dp2240
g13
g0
(g14
g15
(dp2241
g17
Nsg29
Nsg30
I01
sg20
Nsg21
Nsg31
Nsg23
Nsg33
Nsg24
Nsg32
Nsg47
Nsg34
Nsg22
Nsg27
Nsg19
Nstp2242
Rp2243
sbg439
sg8
(S'z8990'
p2244
tp2245
Rp2246
(dp2247
g13
g0
(g14
g15
(dp2248
g17
Nsg19
Nsg20
Nsg21
Nsg22
Nsg24
Nsg47
Nsg48
Nsg27
Nsg49
Nsg29
Nsg30
I01
sg32
Nsg31
Nsg23
Nsg33
Nsg34
Nstp2249
Rp2250
sbg439
sg8
(S'z2227'
p2251
tp2252
Rp2253
(dp2254
g13
g0
(g14
g15
(dp2255
g17
Nsg29
Nsg19
Nsg20
Nsg21
Nsg31
Nsg23
Nsg33
Nsg24
Nsg32
Nsg47
Nsg34
Nsg22
Nsg27
Nsg30
I01
stp2256
Rp2257
sbg439
sg8
(S'z2126'
p2258
tp2259
Rp2260
(dp2261
g13
g0
(g14
g15
(dp2262
g17
Nsg29
Nsg30
I01
sg20
Nsg21
Nsg31
Nsg23
Nsg33
Nsg24
Nsg32
Nsg47
Nsg34
Nsg22
Nsg27
Nsg19
Nstp2263
Rp2264
sbg439
sg8
(S'z5056'
p2265
tp2266
Rp2267
(dp2268
g13
g0
(g14
g15
(dp2269
g17
Nsg29
Nsg30
I01
sg20
Nsg21
Nsg31
Nsg23
Nsg33
Nsg24
Nsg32
Nsg47
Nsg34
Nsg22
Nsg27
Nsg19
Nstp2270
Rp2271
sbg439
sg8
(S'z9091'
p2272
tp2273
Rp2274
(dp2275
g13
g0
(g14
g15
(dp2276
g17
Nsg19
Nsg20
Nsg21
Nsg22
Nsg24
Nsg47
Nsg48
Nsg27
Nsg49
Nsg29
Nsg30
I01
sg32
Nsg31
Nsg23
Nsg33
Nsg34
Nstp2277
Rp2278
sbg439
sg8
(S'z1821'
p2279
tp2280
Rp2281
(dp2282
g13
g0
(g14
g15
(dp2283
g29
Nsg60
Nsg30
I01
sg62
Nsg21
Nsg31
Nsg23
Nsg33
Nsg63
Nsg32
Nsg25
Nsg65
Nsg22
Nsg64
Nsg61
Nstp2284
Rp2285
sbg439
sg8
(S'q25'
p2286
tp2287
Rp2288
(dp2289
g13
g0
(g14
g15
(dp2290
g29
Nsg60
Nsg30
I01
sg21
Nsg31
Nsg23
Nsg33
Nsg32
Nsg22
Nstp2291
Rp2292
sbg439
sg8
(S'z6063'
p2293
tp2294
Rp2295
(dp2296
g13
g0
(g14
g15
(dp2297
g17
Nsg29
Nsg30
I01
sg20
Nsg21
Nsg31
Nsg23
Nsg33
Nsg24
Nsg32
Nsg47
Nsg34
Nsg22
Nsg27
Nsg19
Nstp2298
Rp2299
sbg439
sg8
(S'z4550'
p2300
tp2301
Rp2302
(dp2303
g13
g0
(g14
g15
(dp2304
g17
Nsg29
Nsg30
I01
sg20
Nsg21
Nsg31
Nsg23
Nsg33
Nsg24
Nsg32
Nsg47
Nsg34
Nsg22
Nsg27
Nsg19
Nstp2305
Rp2306
sbg439
sg8
(S'z8384'
p2307
tp2308
Rp2309
(dp2310
g13
g0
(g14
g15
(dp2311
g60
Nsg61
Nsg62
Nsg21
Nsg22
Nsg63
Nsg25
Nsg48
Nsg64
Nsg49
Nsg29
Nsg30
I01
sg32
Nsg31
Nsg23
Nsg33
Nsg65
Nstp2312
Rp2313
sbg439
sg8
(S'z4243'
p2314
tp2315
Rp2316
(dp2317
g13
g0
(g14
g15
(dp2318
g60
Nsg61
Nsg62
Nsg21
Nsg22
Nsg63
Nsg25
Nsg48
Nsg64
Nsg49
Nsg29
Nsg30
I01
sg32
Nsg31
Nsg23
Nsg33
Nsg65
Nstp2319
Rp2320
sbg439
sg8
(S'z7782'
p2321
tp2322
Rp2323
(dp2324
g13
g0
(g14
g15
(dp2325
g17
Nsg29
Nsg30
I01
sg20
Nsg21
Nsg31
Nsg23
Nsg33
Nsg24
Nsg32
Nsg47
Nsg34
Nsg22
Nsg27
Nsg19
Nstp2326
Rp2327
sbg439
sg8
(S'z4551'
p2328
tp2329
Rp2330
(dp2331
g13
g0
(g14
g15
(dp2332
g17
Nsg29
Nsg30
I01
sg20
Nsg21
Nsg31
Nsg23
Nsg33
Nsg24
Nsg32
Nsg47
Nsg34
Nsg22
Nsg27
Nsg19
Nstp2333
Rp2334
sbg439
sg8
(S'z3541'
p2335
tp2336
Rp2337
(dp2338
g13
g0
(g14
g15
(dp2339
g17
Nsg29
Nsg30
I01
sg20
Nsg21
Nsg31
Nsg23
Nsg33
Nsg24
Nsg32
Nsg47
Nsg34
Nsg22
Nsg27
Nsg19
Nstp2340
Rp2341
sbg439
sg8
(S'z9699'
p2342
tp2343
Rp2344
(dp2345
g13
g0
(g14
g15
(dp2346
g17
Nsg29
Nsg30
I01
sg20
Nsg21
Nsg31
Nsg23
Nsg33
Nsg24
Nsg32
Nsg47
Nsg34
Nsg22
Nsg27
Nsg19
Nstp2347
Rp2348
sbg439
sg8
(S'z2930'
p2349
tp2350
Rp2351
(dp2352
g13
g0
(g14
g15
(dp2353
g60
Nsg61
Nsg62
Nsg21
Nsg22
Nsg63
Nsg25
Nsg48
Nsg64
Nsg49
Nsg29
Nsg30
I01
sg32
Nsg31
Nsg23
Nsg33
Nsg65
Nstp2354
Rp2355
sbg439
sg8
(S'z3537'
p2356
tp2357
Rp2358
(dp2359
g13
g0
(g14
g15
(dp2360
g17
Nsg29
Nsg30
I01
sg20
Nsg21
Nsg31
Nsg23
Nsg33
Nsg24
Nsg32
Nsg47
Nsg34
Nsg22
Nsg27
Nsg19
Nstp2361
Rp2362
sbg439
sg8
(S'z1819'
p2363
tp2364
Rp2365
(dp2366
g13
g0
(g14
g15
(dp2367
g29
Nsg60
Nsg30
I01
sg62
Nsg21
Nsg31
Nsg23
Nsg33
Nsg63
Nsg32
Nsg25
Nsg65
Nsg22
Nsg64
Nsg61
Nstp2368
Rp2369
sbg439
sg8
(S'z5758'
p2370
tp2371
Rp2372
(dp2373
g13
g0
(g14
g15
(dp2374
g60
Nsg61
Nsg62
Nsg21
Nsg22
Nsg63
Nsg25
Nsg48
Nsg64
Nsg49
Nsg29
Nsg30
I01
sg32
Nsg31
Nsg23
Nsg33
Nsg65
Nstp2375
Rp2376
sbg439
sg8
(S'z6061'
p2377
tp2378
Rp2379
(dp2380
g13
g0
(g14
g15
(dp2381
g17
Nsg29
Nsg19
Nsg20
Nsg21
Nsg31
Nsg23
Nsg33
Nsg24
Nsg32
Nsg47
Nsg34
Nsg22
Nsg27
Nsg30
I01
stp2382
Rp2383
sbg439
sg8
(S'p25'
p2384
tp2385
Rp2386
(dp2387
g13
g0
(g14
g15
(dp2388
g29
Nsg60
Nsg30
I01
sg62
Nsg21
Nsg31
Nsg23
Nsg33
Nsg63
Nsg32
Nsg25
Nsg65
Nsg22
Nsg64
Nsg61
Nstp2389
Rp2390
sbg439
sg8
(S'z812'
p2391
tp2392
Rp2393
(dp2394
g13
g0
(g14
g15
(dp2395
g17
Nsg29
Nsg30
I01
sg20
Nsg21
Nsg31
Nsg23
Nsg33
Nsg24
Nsg32
Nsg47
Nsg34
Nsg22
Nsg27
Nsg19
Nstp2396
Rp2397
sbg439
sg8
(S'z9899'
p2398
tp2399
Rp2400
(dp2401
g13
g0
(g14
g15
(dp2402
g17
Nsg19
Nsg20
Nsg21
Nsg22
Nsg23
Nsg32
Nsg47
Nsg26
Nsg27
Nsg28
Nsg29
Nsg30
I01
sg31
Nsg24
Nsg33
Nsg34
Nstp2403
Rp2404
sbg439
sg8
(S'z7476'
p2405
tp2406
Rp2407
(dp2408
g13
g0
(g14
g15
(dp2409
g60
Nsg61
Nsg62
Nsg21
Nsg22
Nsg63
Nsg25
Nsg48
Nsg64
Nsg49
Nsg29
Nsg30
I01
sg32
Nsg31
Nsg23
Nsg33
Nsg65
Nstp2410
Rp2411
sbg439
sg8
(S'z6770'
p2412
tp2413
Rp2414
(dp2415
g13
g0
(g14
g15
(dp2416
g17
Nsg29
Nsg30
I01
sg20
Nsg21
Nsg31
Nsg23
Nsg33
Nsg24
Nsg32
Nsg47
Nsg34
Nsg22
Nsg27
Nsg19
Nstp2417
Rp2418
sbg439
sg8
(S'z6769'
p2419
tp2420
Rp2421
(dp2422
g13
g0
(g14
g15
(dp2423
g29
Nsg60
Nsg30
I01
sg62
Nsg21
Nsg31
Nsg23
Nsg33
Nsg63
Nsg32
Nsg25
Nsg65
Nsg22
Nsg64
Nsg61
Nstp2424
Rp2425
sbg439
sg8
(S'z5359'
p2426
tp2427
Rp2428
(dp2429
g13
g0
(g14
g15
(dp2430
g17
Nsg29
Nsg30
I01
sg20
Nsg21
Nsg31
Nsg23
Nsg33
Nsg24
Nsg32
Nsg47
Nsg34
Nsg22
Nsg27
Nsg19
Nstp2431
Rp2432
sbg439
sg8
(S'z5963'
p2433
tp2434
Rp2435
(dp2436
g13
g0
(g14
g15
(dp2437
g29
Nsg60
Nsg30
I01
sg62
Nsg21
Nsg31
Nsg23
Nsg33
Nsg63
Nsg32
Nsg25
Nsg65
Nsg22
Nsg64
Nsg61
Nstp2438
Rp2439
sbg439
sg8
(S'z4748'
p2440
tp2441
Rp2442
(dp2443
g13
g0
(g14
g15
(dp2444
g60
Nsg61
Nsg62
Nsg21
Nsg22
Nsg63
Nsg25
Nsg48
Nsg64
Nsg49
Nsg29
Nsg30
I01
sg32
Nsg31
Nsg23
Nsg33
Nsg65
Nstp2445
Rp2446
sbg439
sg8
(S'q32'
p2447
tp2448
Rp2449
(dp2450
g13
g0
(g14
g15
(dp2451
g60
Nsg61
Nsg62
Nsg21
Nsg22
Nsg32
Nsg48
Nsg63
Nsg49
Nsg64
Nsg29
Nsg30
I01
sg31
Nsg23
Nsg33
Nsg65
Nstp2452
Rp2453
sbg439
sg8
(S'z7276'
p2454
tp2455
Rp2456
(dp2457
g13
g0
(g14
g15
(dp2458
g29
Nsg60
Nsg30
I01
sg62
Nsg21
Nsg31
Nsg23
Nsg33
Nsg63
Nsg32
Nsg25
Nsg65
Nsg22
Nsg64
Nsg61
Nstp2459
Rp2460
sbg439
sg8
(S'q29'
p2461
tp2462
Rp2463
(dp2464
g13
g0
(g14
g15
(dp2465
g29
Nsg60
Nsg30
I01
sg21
Nsg31
Nsg23
Nsg33
Nsg32
Nsg22
Nstp2466
Rp2467
sbg439
sg8
(S'z7982'
p2468
tp2469
Rp2470
(dp2471
g13
g0
(g14
g15
(dp2472
g17
Nsg29
Nsg30
I01
sg20
Nsg21
Nsg31
Nsg23
Nsg33
Nsg24
Nsg32
Nsg47
Nsg34
Nsg22
Nsg27
Nsg19
Nstp2473
Rp2474
sbg439
sg8
(S'z1115'
p2475
tp2476
Rp2477
(dp2478
g13
g0
(g14
g15
(dp2479
g17
Nsg29
Nsg19
Nsg20
Nsg21
Nsg31
Nsg23
Nsg33
Nsg24
Nsg32
Nsg47
Nsg34
Nsg22
Nsg27
Nsg30
I01
stp2480
Rp2481
sbg439
sg8
(S'z6467'
p2482
tp2483
Rp2484
(dp2485
g13
g0
(g14
g15
(dp2486
g17
Nsg19
Nsg20
Nsg21
Nsg22
Nsg23
Nsg32
Nsg47
Nsg26
Nsg27
Nsg28
Nsg29
Nsg30
I01
sg31
Nsg24
Nsg33
Nsg34
Nstp2487
Rp2488
sbg439
sg8
(S'z2628'
p2489
tp2490
Rp2491
(dp2492
g13
g0
(g14
g15
(dp2493
g17
Nsg29
Nsg30
I01
sg20
Nsg21
Nsg31
Nsg23
Nsg33
Nsg24
Nsg32
Nsg47
Nsg34
Nsg22
Nsg27
Nsg19
Nstp2494
Rp2495
sbg439
sg8
(S'z6470'
p2496
tp2497
Rp2498
(dp2499
g13
g0
(g14
g15
(dp2500
g17
Nsg29
Nsg30
I01
sg20
Nsg21
Nsg31
Nsg23
Nsg33
Nsg24
Nsg32
Nsg47
Nsg34
Nsg22
Nsg27
Nsg19
Nstp2501
Rp2502
sbg439
sg8
(S'z6364'
p2503
tp2504
Rp2505
(dp2506
g13
g0
(g14
g15
(dp2507
g29
Nsg60
Nsg30
I01
sg62
Nsg21
Nsg31
Nsg23
Nsg33
Nsg63
Nsg32
Nsg25
Nsg65
Nsg22
Nsg64
Nsg61
Nstp2508
Rp2509
sbg439
sg8
(S'z4851'
p2510
tp2511
Rp2512
(dp2513
g13
g0
(g14
g15
(dp2514
g17
Nsg29
Nsg30
I01
sg20
Nsg21
Nsg31
Nsg23
Nsg33
Nsg24
Nsg32
Nsg47
Nsg34
Nsg22
Nsg27
Nsg19
Nstp2515
Rp2516
sbg439
sg8
(S'z12'
p2517
tp2518
Rp2519
(dp2520
g13
g0
(g14
g15
(dp2521
g17
Nsg29
Nsg19
Nsg20
Nsg21
Nsg31
Nsg23
Nsg33
Nsg24
Nsg32
Nsg47
Nsg34
Nsg22
Nsg27
Nsg30
I01
stp2522
Rp2523
sbg136
sg8
(S'z3339'
p2524
tp2525
Rp2526
(dp2527
g13
g0
(g14
g15
(dp2528
g17
Nsg29
Nsg19
Nsg20
Nsg21
Nsg31
Nsg23
Nsg33
Nsg24
Nsg32
Nsg47
Nsg34
Nsg22
Nsg27
Nsg30
I01
stp2529
Rp2530
sbg439
sg8
(S'p39'
p2531
tp2532
Rp2533
(dp2534
g13
g0
(g14
g15
(dp2535
g29
Nsg60
Nsg30
I01
sg62
Nsg21
Nsg31
Nsg23
Nsg33
Nsg63
Nsg32
Nsg25
Nsg65
Nsg22
Nsg64
Nsg61
Nstp2536
Rp2537
sbg439
sg8
(S'z6369'
p2538
tp2539
Rp2540
(dp2541
g13
g0
(g14
g15
(dp2542
g17
Nsg29
Nsg30
I01
sg20
Nsg21
Nsg31
Nsg23
Nsg33
Nsg24
Nsg32
Nsg47
Nsg34
Nsg22
Nsg27
Nsg19
Nstp2543
Rp2544
sbg439
sg8
(S'z1720'
p2545
tp2546
Rp2547
(dp2548
g13
g0
(g14
g15
(dp2549
g17
Nsg19
Nsg20
Nsg21
Nsg22
Nsg24
Nsg47
Nsg48
Nsg27
Nsg49
Nsg29
Nsg30
I01
sg32
Nsg31
Nsg23
Nsg33
Nsg34
Nstp2550
Rp2551
sbg439
sg8
(S'z5965'
p2552
tp2553
Rp2554
(dp2555
g13
g0
(g14
g15
(dp2556
g17
Nsg29
Nsg30
I01
sg20
Nsg21
Nsg31
Nsg23
Nsg33
Nsg24
Nsg32
Nsg47
Nsg34
Nsg22
Nsg27
Nsg19
Nstp2557
Rp2558
sbg439
sg8
(S'z9497'
p2559
tp2560
Rp2561
(dp2562
g13
g0
(g14
g15
(dp2563
g17
Nsg29
Nsg30
I01
sg20
Nsg21
Nsg31
Nsg23
Nsg33
Nsg24
Nsg32
Nsg47
Nsg34
Nsg22
Nsg27
Nsg19
Nstp2564
Rp2565
sbg439
sg8
(S'z1415'
p2566
tp2567
Rp2568
(dp2569
g13
g0
(g14
g15
(dp2570
g17
Nsg29
Nsg30
I01
sg20
Nsg21
Nsg31
Nsg23
Nsg33
Nsg24
Nsg32
Nsg47
Nsg34
Nsg22
Nsg27
Nsg19
Nstp2571
Rp2572
sbg439
sg8
(S'z4547'
p2573
tp2574
Rp2575
(dp2576
g13
g0
(g14
g15
(dp2577
g17
Nsg19
Nsg20
Nsg21
Nsg22
Nsg24
Nsg47
Nsg48
Nsg27
Nsg49
Nsg29
Nsg30
I01
sg32
Nsg31
Nsg23
Nsg33
Nsg34
Nstp2578
Rp2579
sbg439
sg8
(S'z3438'
p2580
tp2581
Rp2582
(dp2583
g13
g0
(g14
g15
(dp2584
g29
Nsg60
Nsg30
I01
sg62
Nsg21
Nsg31
Nsg23
Nsg33
Nsg63
Nsg32
Nsg25
Nsg65
Nsg22
Nsg64
Nsg61
Nstp2585
Rp2586
sbg439
sg8
(S'p22'
p2587
tp2588
Rp2589
(dp2590
g13
g0
(g14
g15
(dp2591
g60
Nsg61
Nsg62
Nsg21
Nsg22
Nsg63
Nsg25
Nsg48
Nsg64
Nsg49
Nsg29
Nsg30
I01
sg32
Nsg31
Nsg23
Nsg33
Nsg65
Nstp2592
Rp2593
sbg439
sg8
(S'z8083'
p2594
tp2595
Rp2596
(dp2597
g13
g0
(g14
g15
(dp2598
g60
Nsg61
Nsg62
Nsg21
Nsg22
Nsg63
Nsg25
Nsg48
Nsg64
Nsg49
Nsg29
Nsg30
I01
sg32
Nsg31
Nsg23
Nsg33
Nsg65
Nstp2599
Rp2600
sbg439
sg8
(S'z5355'
p2601
tp2602
Rp2603
(dp2604
g13
g0
(g14
g15
(dp2605
g17
Nsg29
Nsg30
I01
sg20
Nsg21
Nsg31
Nsg23
Nsg33
Nsg24
Nsg32
Nsg47
Nsg34
Nsg22
Nsg27
Nsg19
Nstp2606
Rp2607
sbg439
sg8
(S'z7984'
p2608
tp2609
Rp2610
(dp2611
g13
g0
(g14
g15
(dp2612
g17
Nsg29
Nsg30
I01
sg20
Nsg21
Nsg31
Nsg23
Nsg33
Nsg24
Nsg32
Nsg47
Nsg34
Nsg22
Nsg27
Nsg19
Nstp2613
Rp2614
sbg439
sg8
(S'z3641'
p2615
tp2616
Rp2617
(dp2618
g13
g0
(g14
g15
(dp2619
g17
Nsg29
Nsg30
I01
sg20
Nsg21
Nsg31
Nsg23
Nsg33
Nsg24
Nsg32
Nsg47
Nsg34
Nsg22
Nsg27
Nsg19
Nstp2620
Rp2621
sbg439
sg8
(S'z7074'
p2622
tp2623
Rp2624
(dp2625
g13
g0
(g14
g15
(dp2626
g29
Nsg60
Nsg30
I01
sg62
Nsg21
Nsg31
Nsg23
Nsg33
Nsg63
Nsg32
Nsg25
Nsg65
Nsg22
Nsg64
Nsg61
Nstp2627
Rp2628
sbg439
sg8
(S'z8183'
p2629
tp2630
Rp2631
(dp2632
g13
g0
(g14
g15
(dp2633
g17
Nsg29
Nsg19
Nsg20
Nsg21
Nsg31
Nsg23
Nsg33
Nsg24
Nsg32
Nsg47
Nsg34
Nsg22
Nsg27
Nsg30
I01
stp2634
Rp2635
sbg439
sg8
(S'z5154'
p2636
tp2637
Rp2638
(dp2639
g13
g0
(g14
g15
(dp2640
g60
Nsg61
Nsg62
Nsg21
Nsg22
Nsg63
Nsg25
Nsg48
Nsg64
Nsg49
Nsg29
Nsg30
I01
sg32
Nsg31
Nsg23
Nsg33
Nsg65
Nstp2641
Rp2642
sbg439
sg8
(S'z8589'
p2643
tp2644
Rp2645
(dp2646
g13
g0
(g14
g15
(dp2647
g29
Nsg60
Nsg30
I01
sg62
Nsg21
Nsg31
Nsg23
Nsg33
Nsg63
Nsg32
Nsg25
Nsg65
Nsg22
Nsg64
Nsg61
Nstp2648
Rp2649
sbg439
sg8
(S'z7075'
p2650
tp2651
Rp2652
(dp2653
g13
g0
(g14
g15
(dp2654
g29
Nsg60
Nsg30
I01
sg21
Nsg31
Nsg23
Nsg33
Nsg32
Nsg22
Nstp2655
Rp2656
sbg439
sg8
(S'z8388'
p2657
tp2658
Rp2659
(dp2660
g13
g0
(g14
g15
(dp2661
g17
Nsg29
Nsg19
Nsg20
Nsg21
Nsg31
Nsg23
Nsg33
Nsg24
Nsg32
Nsg47
Nsg34
Nsg22
Nsg27
Nsg30
I01
stp2662
Rp2663
sbg439
sg8
(S'z2426'
p2664
tp2665
Rp2666
(dp2667
g13
g0
(g14
g15
(dp2668
g17
Nsg19
Nsg20
Nsg21
Nsg22
Nsg24
Nsg47
Nsg48
Nsg27
Nsg49
Nsg29
Nsg30
I01
sg32
Nsg31
Nsg23
Nsg33
Nsg34
Nstp2669
Rp2670
sbg439
sg8
(S'z6975'
p2671
tp2672
Rp2673
(dp2674
g13
g0
(g14
g15
(dp2675
g17
Nsg29
Nsg30
I01
sg20
Nsg21
Nsg31
Nsg23
Nsg33
Nsg24
Nsg32
Nsg47
Nsg34
Nsg22
Nsg27
Nsg19
Nstp2676
Rp2677
sbg439
sg8
(S'z4146'
p2678
tp2679
Rp2680
(dp2681
g13
g0
(g14
g15
(dp2682
g17
Nsg19
Nsg20
Nsg21
Nsg22
Nsg23
Nsg24
Nsg25
Nsg26
Nsg27
Nsg28
Nsg29
Nsg30
I01
sg31
Nsg32
Nsg33
Nsg34
Nstp2683
Rp2684
sbg439
sg8
(S'p46'
p2685
tp2686
Rp2687
(dp2688
g13
g0
(g14
g15
(dp2689
g29
Nsg60
Nsg30
I01
sg62
Nsg21
Nsg31
Nsg23
Nsg33
Nsg63
Nsg32
Nsg25
Nsg65
Nsg22
Nsg64
Nsg61
Nstp2690
Rp2691
sbg439
sg8
(S'z1114'
p2692
tp2693
Rp2694
(dp2695
g13
g0
(g14
g15
(dp2696
g29
Nsg60
Nsg30
I01
sg62
Nsg21
Nsg31
Nsg23
Nsg33
Nsg63
Nsg32
Nsg25
Nsg65
Nsg22
Nsg64
Nsg61
Nstp2697
Rp2698
sbg439
sg8
(S'z2226'
p2699
tp2700
Rp2701
(dp2702
g13
g0
(g14
g15
(dp2703
g17
Nsg19
Nsg20
Nsg21
Nsg22
Nsg24
Nsg47
Nsg48
Nsg27
Nsg49
Nsg29
Nsg30
I01
sg32
Nsg31
Nsg23
Nsg33
Nsg34
Nstp2704
Rp2705
sbg439
sg8
(S'z99101'
p2706
tp2707
Rp2708
(dp2709
g13
g0
(g14
g15
(dp2710
g17
Nsg29
Nsg30
I01
sg20
Nsg21
Nsg31
Nsg23
Nsg33
Nsg24
Nsg32
Nsg47
Nsg34
Nsg22
Nsg27
Nsg19
Nstp2711
Rp2712
sbg439
sg8
(S'z3740'
p2713
tp2714
Rp2715
(dp2716
g13
g0
(g14
g15
(dp2717
g29
Nsg60
Nsg30
I01
sg62
Nsg21
Nsg31
Nsg23
Nsg33
Nsg63
Nsg32
Nsg25
Nsg65
Nsg22
Nsg64
Nsg61
Nstp2718
Rp2719
sbg439
sg8
(S'p41'
p2720
tp2721
Rp2722
(dp2723
g13
g0
(g14
g15
(dp2724
g29
Nsg60
Nsg30
I01
sg62
Nsg21
Nsg31
Nsg23
Nsg33
Nsg63
Nsg32
Nsg25
Nsg65
Nsg22
Nsg64
Nsg61
Nstp2725
Rp2726
sbg439
sg8
(S'z4347'
p2727
tp2728
Rp2729
(dp2730
g13
g0
(g14
g15
(dp2731
g17
Nsg29
Nsg30
I01
sg20
Nsg21
Nsg31
Nsg23
Nsg33
Nsg24
Nsg32
Nsg47
Nsg34
Nsg22
Nsg27
Nsg19
Nstp2732
Rp2733
sbg439
sg8
(S'z8385'
p2734
tp2735
Rp2736
(dp2737
g13
g0
(g14
g15
(dp2738
g29
Nsg60
Nsg30
I01
sg62
Nsg21
Nsg31
Nsg23
Nsg33
Nsg63
Nsg32
Nsg25
Nsg65
Nsg22
Nsg64
Nsg61
Nstp2739
Rp2740
sbg439
sg8
(S'p1'
p2741
tp2742
Rp2743
(dp2744
g13
g0
(g14
g15
(dp2745
g29
Nsg17
Nsg30
I01
sg20
Nsg21
Nsg31
Nsg23
Nsg33
Nsg24
Nsg32
Nsg47
Nsg34
Nsg22
Nsg27
Nsg19
Nstp2746
Rp2747
sbg136
sg8
(S'z4346'
p2748
tp2749
Rp2750
(dp2751
g13
g0
(g14
g15
(dp2752
g29
Nsg60
Nsg30
I01
sg62
Nsg21
Nsg31
Nsg23
Nsg33
Nsg63
Nsg32
Nsg25
Nsg65
Nsg22
Nsg64
Nsg61
Nstp2753
Rp2754
sbg439
sg8
(S'z9293'
p2755
tp2756
Rp2757
(dp2758
g13
g0
(g14
g15
(dp2759
g29
Nsg60
Nsg30
I01
sg62
Nsg21
Nsg31
Nsg23
Nsg33
Nsg63
Nsg32
Nsg25
Nsg65
Nsg22
Nsg64
Nsg61
Nstp2760
Rp2761
sbg439
sg8
(S'z7882'
p2762
tp2763
Rp2764
(dp2765
g13
g0
(g14
g15
(dp2766
g17
Nsg29
Nsg30
I01
sg20
Nsg21
Nsg31
Nsg23
Nsg33
Nsg24
Nsg32
Nsg47
Nsg34
Nsg22
Nsg27
Nsg19
Nstp2767
Rp2768
sbg439
sg8
(S'z8590'
p2769
tp2770
Rp2771
(dp2772
g13
g0
(g14
g15
(dp2773
g17
Nsg29
Nsg19
Nsg20
Nsg21
Nsg31
Nsg23
Nsg33
Nsg24
Nsg32
Nsg47
Nsg34
Nsg22
Nsg27
Nsg30
I01
stp2774
Rp2775
sbg439
sg8
(S'z7879'
p2776
tp2777
Rp2778
(dp2779
g13
g0
(g14
g15
(dp2780
g17
Nsg19
Nsg20
Nsg21
Nsg22
Nsg24
Nsg47
Nsg48
Nsg27
Nsg49
Nsg29
Nsg30
I01
sg32
Nsg31
Nsg23
Nsg33
Nsg34
Nstp2781
Rp2782
sbg439
sg8
(S'q43'
p2783
tp2784
Rp2785
(dp2786
g13
g0
(g14
g15
(dp2787
g29
Nsg60
Nsg30
I01
sg21
Nsg31
Nsg23
Nsg33
Nsg32
Nsg22
Nstp2788
Rp2789
sbg439
sg8
(S'z5559'
p2790
tp2791
Rp2792
(dp2793
g13
g0
(g14
g15
(dp2794
g17
Nsg29
Nsg30
I01
sg20
Nsg21
Nsg31
Nsg23
Nsg33
Nsg24
Nsg32
Nsg47
Nsg34
Nsg22
Nsg27
Nsg19
Nstp2795
Rp2796
sbg439
sg8
(S'z3842'
p2797
tp2798
Rp2799
(dp2800
g13
g0
(g14
g15
(dp2801
g17
Nsg29
Nsg30
I01
sg20
Nsg21
Nsg31
Nsg23
Nsg33
Nsg24
Nsg32
Nsg47
Nsg34
Nsg22
Nsg27
Nsg19
Nstp2802
Rp2803
sbg439
sg8
(S'z5460'
p2804
tp2805
Rp2806
(dp2807
g13
g0
(g14
g15
(dp2808
g17
Nsg29
Nsg30
I01
sg20
Nsg21
Nsg31
Nsg23
Nsg33
Nsg24
Nsg32
Nsg47
Nsg34
Nsg22
Nsg27
Nsg19
Nstp2809
Rp2810
sbg439
sg8
(S'z5354'
p2811
tp2812
Rp2813
(dp2814
g13
g0
(g14
g15
(dp2815
g17
Nsg19
Nsg20
Nsg21
Nsg22
Nsg24
Nsg47
Nsg48
Nsg27
Nsg49
Nsg29
Nsg30
I01
sg32
Nsg31
Nsg23
Nsg33
Nsg34
Nstp2816
Rp2817
sbg439
sg8
(S'q17'
p2818
tp2819
Rp2820
(dp2821
g13
g0
(g14
g15
(dp2822
g29
Nsg60
Nsg30
I01
sg62
Nsg21
Nsg31
Nsg23
Nsg33
Nsg63
Nsg32
Nsg25
Nsg65
Nsg22
Nsg64
Nsg61
Nstp2823
Rp2824
sbg439
sg8
(S'z5863'
p2825
tp2826
Rp2827
(dp2828
g13
g0
(g14
g15
(dp2829
g17
Nsg29
Nsg30
I01
sg20
Nsg21
Nsg31
Nsg23
Nsg33
Nsg24
Nsg32
Nsg47
Nsg34
Nsg22
Nsg27
Nsg19
Nstp2830
Rp2831
sbg439
sg8
(S'z6367'
p2832
tp2833
Rp2834
(dp2835
g13
g0
(g14
g15
(dp2836
g17
Nsg29
Nsg30
I01
sg20
Nsg21
Nsg31
Nsg23
Nsg33
Nsg24
Nsg32
Nsg47
Nsg34
Nsg22
Nsg27
Nsg19
Nstp2837
Rp2838
sbg439
sg8
(S'z3943'
p2839
tp2840
Rp2841
(dp2842
g13
g0
(g14
g15
(dp2843
g29
Nsg60
Nsg30
I01
sg62
Nsg21
Nsg31
Nsg23
Nsg33
Nsg63
Nsg32
Nsg25
Nsg65
Nsg22
Nsg64
Nsg61
Nstp2844
Rp2845
sbg439
sg8
(S'z3538'
p2846
tp2847
Rp2848
(dp2849
g13
g0
(g14
g15
(dp2850
g17
Nsg29
Nsg30
I01
sg20
Nsg21
Nsg31
Nsg23
Nsg33
Nsg24
Nsg32
Nsg47
Nsg34
Nsg22
Nsg27
Nsg19
Nstp2851
Rp2852
sbg439
sg8
(S'z5864'
p2853
tp2854
Rp2855
(dp2856
g13
g0
(g14
g15
(dp2857
g17
Nsg29
Nsg30
I01
sg20
Nsg21
Nsg31
Nsg23
Nsg33
Nsg24
Nsg32
Nsg47
Nsg34
Nsg22
Nsg27
Nsg19
Nstp2858
Rp2859
sbg439
sg8
(S'z7680'
p2860
tp2861
Rp2862
(dp2863
g13
g0
(g14
g15
(dp2864
g17
Nsg29
Nsg19
Nsg20
Nsg21
Nsg31
Nsg23
Nsg33
Nsg24
Nsg32
Nsg47
Nsg34
Nsg22
Nsg27
Nsg30
I01
stp2865
Rp2866
sbg439
sg8
(S'p48'
p2867
tp2868
Rp2869
(dp2870
g13
g0
(g14
g15
(dp2871
g29
Nsg60
Nsg30
I01
sg62
Nsg21
Nsg31
Nsg23
Nsg33
Nsg63
Nsg32
Nsg25
Nsg65
Nsg22
Nsg64
Nsg61
Nstp2872
Rp2873
sbg439
sg8
(S'z6870'
p2874
tp2875
Rp2876
(dp2877
g13
g0
(g14
g15
(dp2878
g17
Nsg19
Nsg20
Nsg21
Nsg22
Nsg24
Nsg47
Nsg48
Nsg27
Nsg49
Nsg29
Nsg30
I01
sg32
Nsg31
Nsg23
Nsg33
Nsg34
Nstp2879
Rp2880
sbg439
sg8
(S'z9195'
p2881
tp2882
Rp2883
(dp2884
g13
g0
(g14
g15
(dp2885
g17
Nsg29
Nsg19
Nsg20
Nsg21
Nsg31
Nsg23
Nsg33
Nsg24
Nsg32
Nsg47
Nsg34
Nsg22
Nsg27
Nsg30
I01
stp2886
Rp2887
sbg439
sg8
(S'z3941'
p2888
tp2889
Rp2890
(dp2891
g13
g0
(g14
g15
(dp2892
g29
Nsg60
Nsg30
I01
sg62
Nsg21
Nsg31
Nsg23
Nsg33
Nsg63
Nsg32
Nsg25
Nsg65
Nsg22
Nsg64
Nsg61
Nstp2893
Rp2894
sbg439
sg8
(S'p3'
p2895
tp2896
Rp2897
(dp2898
g13
g0
(g14
g15
(dp2899
g60
Nsg61
Nsg62
Nsg21
Nsg22
Nsg63
Nsg25
Nsg48
Nsg64
Nsg49
Nsg29
Nsg30
I01
sg32
Nsg31
Nsg23
Nsg33
Nsg65
Nstp2900
Rp2901
sbg439
sg8
(S'q37'
p2902
tp2903
Rp2904
(dp2905
g13
g0
(g14
g15
(dp2906
g60
Nsg61
Nsg62
Nsg21
Nsg22
Nsg32
Nsg48
Nsg63
Nsg49
Nsg64
Nsg29
Nsg30
I01
sg31
Nsg23
Nsg33
Nsg65
Nstp2907
Rp2908
sbg439
sg8
(S'z1823'
p2909
tp2910
Rp2911
(dp2912
g13
g0
(g14
g15
(dp2913
g17
Nsg29
Nsg30
I01
sg20
Nsg21
Nsg31
Nsg23
Nsg33
Nsg24
Nsg32
Nsg47
Nsg34
Nsg22
Nsg27
Nsg19
Nstp2914
Rp2915
sbg439
sg8
(S'z6065'
p2916
tp2917
Rp2918
(dp2919
g13
g0
(g14
g15
(dp2920
g17
Nsg29
Nsg30
I01
sg20
Nsg21
Nsg31
Nsg23
Nsg33
Nsg24
Nsg32
Nsg47
Nsg34
Nsg22
Nsg27
Nsg19
Nstp2921
Rp2922
sbg439
sg8
(S'q45'
p2923
tp2924
Rp2925
(dp2926
g13
g0
(g14
g15
(dp2927
g29
Nsg60
Nsg30
I01
sg21
Nsg31
Nsg23
Nsg33
Nsg32
Nsg22
Nstp2928
Rp2929
sbg439
sg8
(S'z6466'
p2930
tp2931
Rp2932
(dp2933
g13
g0
(g14
g15
(dp2934
g17
Nsg29
Nsg30
I01
sg20
Nsg21
Nsg31
Nsg23
Nsg33
Nsg24
Nsg32
Nsg47
Nsg34
Nsg22
Nsg27
Nsg19
Nstp2935
Rp2936
sbg439
sg8
(S'z3337'
p2937
tp2938
Rp2939
(dp2940
g13
g0
(g14
g15
(dp2941
g29
Nsg60
Nsg30
I01
sg62
Nsg21
Nsg31
Nsg23
Nsg33
Nsg63
Nsg32
Nsg25
Nsg65
Nsg22
Nsg64
Nsg61
Nstp2942
Rp2943
sbg439
sg8
(S'p16'
p2944
tp2945
Rp2946
(dp2947
g13
g0
(g14
g15
(dp2948
g60
Nsg61
Nsg62
Nsg21
Nsg22
Nsg63
Nsg25
Nsg48
Nsg64
Nsg49
Nsg29
Nsg30
I01
sg32
Nsg31
Nsg23
Nsg33
Nsg65
Nstp2949
Rp2950
sbg439
sg8
(S'z6365'
p2951
tp2952
Rp2953
(dp2954
g13
g0
(g14
g15
(dp2955
g17
Nsg19
Nsg20
Nsg21
Nsg22
Nsg23
Nsg24
Nsg25
Nsg26
Nsg27
Nsg28
Nsg29
Nsg30
I01
sg31
Nsg32
Nsg33
Nsg34
Nstp2956
Rp2957
sbg439
sg8
(S'z2429'
p2958
tp2959
Rp2960
(dp2961
g13
g0
(g14
g15
(dp2962
g17
Nsg29
Nsg30
I01
sg20
Nsg21
Nsg31
Nsg23
Nsg33
Nsg24
Nsg32
Nsg47
Nsg34
Nsg22
Nsg27
Nsg19
Nstp2963
Rp2964
sbg439
sg8
(S'z4447'
p2965
tp2966
Rp2967
(dp2968
g13
g0
(g14
g15
(dp2969
g17
Nsg29
Nsg30
I01
sg20
Nsg21
Nsg31
Nsg23
Nsg33
Nsg24
Nsg32
Nsg47
Nsg34
Nsg22
Nsg27
Nsg19
Nstp2970
Rp2971
sbg439
sg8
(S'p40'
p2972
tp2973
Rp2974
(dp2975
g13
g0
(g14
g15
(dp2976
g29
Nsg60
Nsg30
I01
sg62
Nsg21
Nsg31
Nsg23
Nsg33
Nsg63
Nsg32
Nsg25
Nsg65
Nsg22
Nsg64
Nsg61
Nstp2977
Rp2978
sbg439
sg8
(S'z4450'
p2979
tp2980
Rp2981
(dp2982
g13
g0
(g14
g15
(dp2983
g17
Nsg29
Nsg30
I01
sg20
Nsg21
Nsg31
Nsg23
Nsg33
Nsg24
Nsg32
Nsg47
Nsg34
Nsg22
Nsg27
Nsg19
Nstp2984
Rp2985
sbg439
sg8
(S'z7577'
p2986
tp2987
Rp2988
(dp2989
g13
g0
(g14
g15
(dp2990
g60
Nsg61
Nsg62
Nsg21
Nsg22
Nsg63
Nsg25
Nsg48
Nsg64
Nsg49
Nsg29
Nsg30
I01
sg32
Nsg31
Nsg23
Nsg33
Nsg65
Nstp2991
Rp2992
sbg439
sg8
(S'z5763'
p2993
tp2994
Rp2995
(dp2996
g13
g0
(g14
g15
(dp2997
g17
Nsg29
Nsg30
I01
sg20
Nsg21
Nsg31
Nsg23
Nsg33
Nsg24
Nsg32
Nsg47
Nsg34
Nsg22
Nsg27
Nsg19
Nstp2998
Rp2999
sbg439
sg8
(S'z811'
p3000
tp3001
Rp3002
(dp3003
g13
g0
(g14
g15
(dp3004
g17
Nsg19
Nsg20
Nsg21
Nsg22
Nsg23
Nsg32
Nsg47
Nsg26
Nsg27
Nsg28
Nsg29
Nsg30
I01
sg31
Nsg24
Nsg33
Nsg34
Nstp3005
Rp3006
sbg439
sg8
(S'z5661'
p3007
tp3008
Rp3009
(dp3010
g13
g0
(g14
g15
(dp3011
g29
Nsg60
Nsg30
I01
sg62
Nsg21
Nsg31
Nsg23
Nsg33
Nsg63
Nsg32
Nsg25
Nsg65
Nsg22
Nsg64
Nsg61
Nstp3012
Rp3013
sbg439
sg8
(S'z6671'
p3014
tp3015
Rp3016
(dp3017
g13
g0
(g14
g15
(dp3018
g17
Nsg29
Nsg19
Nsg20
Nsg21
Nsg31
Nsg23
Nsg33
Nsg24
Nsg32
Nsg47
Nsg34
Nsg22
Nsg27
Nsg30
I01
stp3019
Rp3020
sbg439
sg8
(S'z6772'
p3021
tp3022
Rp3023
(dp3024
g13
g0
(g14
g15
(dp3025
g17
Nsg19
Nsg20
Nsg21
Nsg22
Nsg23
Nsg24
Nsg25
Nsg26
Nsg27
Nsg28
Nsg29
Nsg30
I01
sg31
Nsg32
Nsg33
Nsg34
Nstp3026
Rp3027
sbg439
sg8
(S'z4445'
p3028
tp3029
Rp3030
(dp3031
g13
g0
(g14
g15
(dp3032
g17
Nsg19
Nsg20
Nsg21
Nsg22
Nsg24
Nsg47
Nsg48
Nsg27
Nsg49
Nsg29
Nsg30
I01
sg32
Nsg31
Nsg23
Nsg33
Nsg34
Nstp3033
Rp3034
sbg439
sg8
(S'z2122'
p3035
tp3036
Rp3037
(dp3038
g13
g0
(g14
g15
(dp3039
g17
Nsg19
Nsg20
Nsg21
Nsg22
Nsg23
Nsg32
Nsg47
Nsg26
Nsg27
Nsg28
Nsg29
Nsg30
I01
sg31
Nsg24
Nsg33
Nsg34
Nstp3040
Rp3041
sbg439
sg8
(S'z6773'
p3042
tp3043
Rp3044
(dp3045
g13
g0
(g14
g15
(dp3046
g17
Nsg29
Nsg30
I01
sg20
Nsg21
Nsg31
Nsg23
Nsg33
Nsg24
Nsg32
Nsg47
Nsg34
Nsg22
Nsg27
Nsg19
Nstp3047
Rp3048
sbg439
sg8
(S'z8082'
p3049
tp3050
Rp3051
(dp3052
g13
g0
(g14
g15
(dp3053
g29
Nsg60
Nsg30
I01
sg62
Nsg21
Nsg31
Nsg23
Nsg33
Nsg63
Nsg32
Nsg25
Nsg65
Nsg22
Nsg64
Nsg61
Nstp3054
Rp3055
sbg439
sg8
(S'p18'
p3056
tp3057
Rp3058
(dp3059
g13
g0
(g14
g15
(dp3060
g29
Nsg60
Nsg30
I01
sg62
Nsg21
Nsg31
Nsg23
Nsg33
Nsg63
Nsg32
Nsg25
Nsg65
Nsg22
Nsg64
Nsg61
Nstp3061
Rp3062
sbg439
sg8
(S'z7274'
p3063
tp3064
Rp3065
(dp3066
g13
g0
(g14
g15
(dp3067
g17
Nsg19
Nsg20
Nsg21
Nsg22
Nsg24
Nsg47
Nsg48
Nsg27
Nsg49
Nsg29
Nsg30
I01
sg32
Nsg31
Nsg23
Nsg33
Nsg34
Nstp3068
Rp3069
sbg439
sg8
(S'z7679'
p3070
tp3071
Rp3072
(dp3073
g13
g0
(g14
g15
(dp3074
g17
Nsg19
Nsg20
Nsg21
Nsg22
Nsg23
Nsg32
Nsg47
Nsg26
Nsg27
Nsg28
Nsg29
Nsg30
I01
sg31
Nsg24
Nsg33
Nsg34
Nstp3075
Rp3076
sbg439
sg8
(S'z5153'
p3077
tp3078
Rp3079
(dp3080
g13
g0
(g14
g15
(dp3081
g29
Nsg60
Nsg30
I01
sg62
Nsg21
Nsg31
Nsg23
Nsg33
Nsg63
Nsg32
Nsg25
Nsg65
Nsg22
Nsg64
Nsg61
Nstp3082
Rp3083
sbg439
sg8
(S'z5459'
p3084
tp3085
Rp3086
(dp3087
g13
g0
(g14
g15
(dp3088
g29
Nsg60
Nsg30
I01
sg62
Nsg21
Nsg31
Nsg23
Nsg33
Nsg63
Nsg32
Nsg25
Nsg65
Nsg22
Nsg64
Nsg61
Nstp3089
Rp3090
sbg439
sg8
(S'p35'
p3091
tp3092
Rp3093
(dp3094
g13
g0
(g14
g15
(dp3095
g60
Nsg61
Nsg62
Nsg21
Nsg22
Nsg63
Nsg25
Nsg48
Nsg64
Nsg49
Nsg29
Nsg30
I01
sg32
Nsg31
Nsg23
Nsg33
Nsg65
Nstp3096
Rp3097
sbg439
sg8
(S'z7275'
p3098
tp3099
Rp3100
(dp3101
g13
g0
(g14
g15
(dp3102
g29
Nsg60
Nsg30
I01
sg62
Nsg21
Nsg31
Nsg23
Nsg33
Nsg63
Nsg32
Nsg25
Nsg65
Nsg22
Nsg64
Nsg61
Nstp3103
Rp3104
sbg439
sg73
g7
(g760
g37
(csympy.core.numbers
NegativeOne
p3105
(tRp3106
(dp3107
bg44
tp3108
Rp3109
(dp3110
btp3111
Rp3112
(dp3113
bsg8
(S'z5557'
p3114
tp3115
Rp3116
(dp3117
g13
g0
(g14
g15
(dp3118
g17
Nsg29
Nsg30
I01
sg20
Nsg21
Nsg31
Nsg23
Nsg33
Nsg24
Nsg32
Nsg47
Nsg34
Nsg22
Nsg27
Nsg19
Nstp3119
Rp3120
sbg439
sg8
(S'z4950'
p3121
tp3122
Rp3123
(dp3124
g13
g0
(g14
g15
(dp3125
g17
Nsg19
Nsg20
Nsg21
Nsg22
Nsg24
Nsg47
Nsg48
Nsg27
Nsg29
Nsg30
I01
sg32
Nsg31
Nsg23
Nsg33
Nsg34
Nstp3126
Rp3127
sbg439
sg8
(S'z912'
p3128
tp3129
Rp3130
(dp3131
g13
g0
(g14
g15
(dp3132
g17
Nsg29
Nsg30
I01
sg20
Nsg21
Nsg31
Nsg23
Nsg33
Nsg24
Nsg32
Nsg47
Nsg34
Nsg22
Nsg27
Nsg19
Nstp3133
Rp3134
sbg439
sg8
(S'p43'
p3135
tp3136
Rp3137
(dp3138
g13
g0
(g14
g15
(dp3139
g29
Nsg60
Nsg30
I01
sg62
Nsg21
Nsg31
Nsg23
Nsg33
Nsg63
Nsg32
Nsg25
Nsg65
Nsg22
Nsg64
Nsg61
Nstp3140
Rp3141
sbg439
sg8
(S'q8'
p3142
tp3143
Rp3144
(dp3145
g13
g0
(g14
g15
(dp3146
g29
Nsg60
Nsg30
I01
sg62
Nsg21
Nsg31
Nsg23
Nsg33
Nsg63
Nsg32
Nsg25
Nsg65
Nsg22
Nsg64
Nsg61
Nstp3147
Rp3148
sbg439
sg8
(S'z3738'
p3149
tp3150
Rp3151
(dp3152
g13
g0
(g14
g15
(dp3153
g29
Nsg60
Nsg30
I01
sg62
Nsg21
Nsg31
Nsg23
Nsg33
Nsg63
Nsg32
Nsg25
Nsg65
Nsg22
Nsg64
Nsg61
Nstp3154
Rp3155
sbg439
sg8
(S'z8688'
p3156
tp3157
Rp3158
(dp3159
g13
g0
(g14
g15
(dp3160
g17
Nsg29
Nsg30
I01
sg20
Nsg21
Nsg31
Nsg23
Nsg33
Nsg24
Nsg32
Nsg47
Nsg34
Nsg22
Nsg27
Nsg19
Nstp3161
Rp3162
sbg439
sg8
(S'z6164'
p3163
tp3164
Rp3165
(dp3166
g13
g0
(g14
g15
(dp3167
g29
Nsg60
Nsg30
I01
sg62
Nsg21
Nsg31
Nsg23
Nsg33
Nsg63
Nsg32
Nsg25
Nsg65
Nsg22
Nsg64
Nsg61
Nstp3168
Rp3169
sbg439
sg8
(S'z3540'
p3170
tp3171
Rp3172
(dp3173
g13
g0
(g14
g15
(dp3174
g29
Nsg60
Nsg30
I01
sg62
Nsg21
Nsg31
Nsg23
Nsg33
Nsg63
Nsg32
Nsg25
Nsg65
Nsg22
Nsg64
Nsg61
Nstp3175
Rp3176
sbg439
sg8
(S'z6266'
p3177
tp3178
Rp3179
(dp3180
g13
g0
(g14
g15
(dp3181
g29
Nsg60
Nsg30
I01
sg62
Nsg21
Nsg31
Nsg23
Nsg33
Nsg63
Nsg32
Nsg25
Nsg65
Nsg22
Nsg64
Nsg61
Nstp3182
Rp3183
sbg439
sg8
(S'z3336'
p3184
tp3185
Rp3186
(dp3187
g13
g0
(g14
g15
(dp3188
g29
Nsg60
Nsg30
I01
sg62
Nsg21
Nsg31
Nsg23
Nsg33
Nsg63
Nsg32
Nsg25
Nsg65
Nsg22
Nsg64
Nsg61
Nstp3189
Rp3190
sbg439
sg8
(S'z8286'
p3191
tp3192
Rp3193
(dp3194
g13
g0
(g14
g15
(dp3195
g29
Nsg60
Nsg30
I01
sg62
Nsg21
Nsg31
Nsg23
Nsg33
Nsg63
Nsg32
Nsg25
Nsg65
Nsg22
Nsg64
Nsg61
Nstp3196
Rp3197
sbg439
sg8
(S'z4348'
p3198
tp3199
Rp3200
(dp3201
g13
g0
(g14
g15
(dp3202
g17
Nsg29
Nsg30
I01
sg20
Nsg21
Nsg31
Nsg23
Nsg33
Nsg24
Nsg32
Nsg47
Nsg34
Nsg22
Nsg27
Nsg19
Nstp3203
Rp3204
sbg439
sg8
(S'z2833'
p3205
tp3206
Rp3207
(dp3208
g13
g0
(g14
g15
(dp3209
g29
Nsg60
Nsg30
I01
sg21
Nsg31
Nsg23
Nsg33
Nsg32
Nsg22
Nstp3210
Rp3211
sbg439
sg8
(S'z6062'
p3212
tp3213
Rp3214
(dp3215
g13
g0
(g14
g15
(dp3216
g17
Nsg29
Nsg30
I01
sg20
Nsg21
Nsg31
Nsg23
Nsg33
Nsg24
Nsg32
Nsg47
Nsg34
Nsg22
Nsg27
Nsg19
Nstp3217
Rp3218
sbg439
sg8
(S'z8489'
p3219
tp3220
Rp3221
(dp3222
g13
g0
(g14
g15
(dp3223
g17
Nsg29
Nsg30
I01
sg20
Nsg21
Nsg31
Nsg23
Nsg33
Nsg24
Nsg32
Nsg47
Nsg34
Nsg22
Nsg27
Nsg19
Nstp3224
Rp3225
sbg439
sg8
(S'z56'
p3226
tp3227
Rp3228
(dp3229
g13
g0
(g14
g15
(dp3230
g17
Nsg29
Nsg30
I01
sg20
Nsg21
Nsg31
Nsg23
Nsg33
Nsg24
Nsg32
Nsg47
Nsg34
Nsg22
Nsg27
Nsg19
Nstp3231
Rp3232
sbg7
(g136
g37
(g3106
g424
tp3233
Rp3234
(dp3235
btp3236
Rp3237
(dp3238
bsg8
(S'p20'
p3239
tp3240
Rp3241
(dp3242
g13
g0
(g14
g15
(dp3243
g17
Nsg19
Nsg20
Nsg21
Nsg22
Nsg24
Nsg47
Nsg48
Nsg27
Nsg49
Nsg29
Nsg30
I01
sg32
Nsg31
Nsg23
Nsg33
Nsg34
Nstp3244
Rp3245
sbg439
sg8
(S'z1923'
p3246
tp3247
Rp3248
(dp3249
g13
g0
(g14
g15
(dp3250
g17
Nsg29
Nsg30
I01
sg20
Nsg21
Nsg31
Nsg23
Nsg33
Nsg24
Nsg32
Nsg47
Nsg34
Nsg22
Nsg27
Nsg19
Nstp3251
Rp3252
sbg439
sg8
(S'z6264'
p3253
tp3254
Rp3255
(dp3256
g13
g0
(g14
g15
(dp3257
g29
Nsg60
Nsg30
I01
sg62
Nsg21
Nsg31
Nsg23
Nsg33
Nsg63
Nsg32
Nsg25
Nsg65
Nsg22
Nsg64
Nsg61
Nstp3258
Rp3259
sbg439
sg8
(S'q18'
p3260
tp3261
Rp3262
(dp3263
g13
g0
(g14
g15
(dp3264
g60
Nsg61
Nsg62
Nsg21
Nsg22
Nsg63
Nsg25
Nsg48
Nsg64
Nsg49
Nsg29
Nsg30
I01
sg32
Nsg31
Nsg23
Nsg33
Nsg65
Nstp3265
Rp3266
sbg439
sg8
(S'z9396'
p3267
tp3268
Rp3269
(dp3270
g13
g0
(g14
g15
(dp3271
g60
Nsg61
Nsg62
Nsg21
Nsg22
Nsg63
Nsg25
Nsg48
Nsg64
Nsg49
Nsg29
Nsg30
I01
sg32
Nsg31
Nsg23
Nsg33
Nsg65
Nstp3272
Rp3273
sbg439
sg8
(S'z8185'
p3274
tp3275
Rp3276
(dp3277
g13
g0
(g14
g15
(dp3278
g17
Nsg29
Nsg30
I01
sg20
Nsg21
Nsg31
Nsg23
Nsg33
Nsg24
Nsg32
Nsg47
Nsg34
Nsg22
Nsg27
Nsg19
Nstp3279
Rp3280
sbg439
sg8
(S'z6265'
p3281
tp3282
Rp3283
(dp3284
g13
g0
(g14
g15
(dp3285
g29
Nsg60
Nsg30
I01
sg62
Nsg21
Nsg31
Nsg23
Nsg33
Nsg63
Nsg32
Nsg25
Nsg65
Nsg22
Nsg64
Nsg61
Nstp3286
Rp3287
sbg439
sg8
(S'z7478'
p3288
tp3289
Rp3290
(dp3291
g13
g0
(g14
g15
(dp3292
g29
Nsg60
Nsg30
I01
sg62
Nsg21
Nsg31
Nsg23
Nsg33
Nsg63
Nsg32
Nsg25
Nsg65
Nsg22
Nsg64
Nsg61
Nstp3293
Rp3294
sbg439
sg8
(S'z5759'
p3295
tp3296
Rp3297
(dp3298
g13
g0
(g14
g15
(dp3299
g29
Nsg60
Nsg30
I01
sg62
Nsg21
Nsg31
Nsg23
Nsg33
Nsg63
Nsg32
Nsg25
Nsg65
Nsg22
Nsg64
Nsg61
Nstp3300
Rp3301
sbg439
sg8
(S'z3638'
p3302
tp3303
Rp3304
(dp3305
g13
g0
(g14
g15
(dp3306
g60
Nsg61
Nsg62
Nsg21
Nsg22
Nsg63
Nsg25
Nsg48
Nsg64
Nsg49
Nsg29
Nsg30
I01
sg32
Nsg31
Nsg23
Nsg33
Nsg65
Nstp3307
Rp3308
sbg439
sg8
(S'z100101'
p3309
tp3310
Rp3311
(dp3312
g13
g0
(g14
g15
(dp3313
g17
Nsg19
Nsg20
Nsg21
Nsg22
Nsg23
Nsg32
Nsg47
Nsg26
Nsg27
Nsg28
Nsg29
Nsg30
I01
sg31
Nsg24
Nsg33
Nsg34
Nstp3314
Rp3315
sbg439
sg8
(S'z9697'
p3316
tp3317
Rp3318
(dp3319
g13
g0
(g14
g15
(dp3320
g17
Nsg29
Nsg19
Nsg20
Nsg21
Nsg31
Nsg23
Nsg33
Nsg24
Nsg32
Nsg47
Nsg34
Nsg22
Nsg27
Nsg30
I01
stp3321
Rp3322
sbg439
sg8
(S'z1921'
p3323
tp3324
Rp3325
(dp3326
g13
g0
(g14
g15
(dp3327
g17
Nsg29
Nsg30
I01
sg20
Nsg21
Nsg31
Nsg23
Nsg33
Nsg24
Nsg32
Nsg47
Nsg34
Nsg22
Nsg27
Nsg19
Nstp3328
Rp3329
sbg439
sg8
(S'z4248'
p3330
tp3331
Rp3332
(dp3333
g13
g0
(g14
g15
(dp3334
g17
Nsg29
Nsg30
I01
sg20
Nsg21
Nsg31
Nsg23
Nsg33
Nsg24
Nsg32
Nsg47
Nsg34
Nsg22
Nsg27
Nsg19
Nstp3335
Rp3336
sbg439
sg8
(S'p32'
p3337
tp3338
Rp3339
(dp3340
g13
g0
(g14
g15
(dp3341
g60
Nsg61
Nsg62
Nsg21
Nsg22
Nsg63
Nsg25
Nsg48
Nsg64
Nsg49
Nsg29
Nsg30
I01
sg32
Nsg31
Nsg23
Nsg33
Nsg65
Nstp3342
Rp3343
sbg439
sg8
(S'z3743'
p3344
tp3345
Rp3346
(dp3347
g13
g0
(g14
g15
(dp3348
g17
Nsg29
Nsg30
I01
sg20
Nsg21
Nsg31
Nsg23
Nsg33
Nsg24
Nsg32
Nsg47
Nsg34
Nsg22
Nsg27
Nsg19
Nstp3349
Rp3350
sbg439
sg8
(S'z8284'
p3351
tp3352
Rp3353
(dp3354
g13
g0
(g14
g15
(dp3355
g29
Nsg60
Nsg30
I01
sg62
Nsg21
Nsg31
Nsg23
Nsg33
Nsg63
Nsg32
Nsg25
Nsg65
Nsg22
Nsg64
Nsg61
Nstp3356
Rp3357
sbg439
sg8
(S'z8387'
p3358
tp3359
Rp3360
(dp3361
g13
g0
(g14
g15
(dp3362
g29
Nsg60
Nsg30
I01
sg62
Nsg21
Nsg31
Nsg23
Nsg33
Nsg63
Nsg32
Nsg25
Nsg65
Nsg22
Nsg64
Nsg61
Nstp3363
Rp3364
sbg439
sg8
(S'z2224'
p3365
tp3366
Rp3367
(dp3368
g13
g0
(g14
g15
(dp3369
g60
Nsg61
Nsg62
Nsg21
Nsg22
Nsg63
Nsg25
Nsg48
Nsg64
Nsg49
Nsg29
Nsg30
I01
sg32
Nsg31
Nsg23
Nsg33
Nsg65
Nstp3370
Rp3371
sbg439
sg8
(S'z24'
p3372
tp3373
Rp3374
(dp3375
g13
g0
(g14
g15
(dp3376
g17
Nsg19
Nsg20
Nsg21
Nsg22
Nsg24
Nsg47
Nsg48
Nsg27
Nsg49
Nsg29
Nsg30
I01
sg32
Nsg31
Nsg23
Nsg33
Nsg34
Nstp3377
Rp3378
sbg439
sg8
(S'z8788'
p3379
tp3380
Rp3381
(dp3382
g13
g0
(g14
g15
(dp3383
g17
Nsg19
Nsg20
Nsg21
Nsg22
Nsg24
Nsg47
Nsg48
Nsg27
Nsg49
Nsg29
Nsg30
I01
sg32
Nsg31
Nsg23
Nsg33
Nsg34
Nstp3384
Rp3385
sbg439
sg8
(S'z6064'
p3386
tp3387
Rp3388
(dp3389
g13
g0
(g14
g15
(dp3390
g29
Nsg60
Nsg30
I01
sg62
Nsg21
Nsg31
Nsg23
Nsg33
Nsg63
Nsg32
Nsg25
Nsg65
Nsg22
Nsg64
Nsg61
Nstp3391
Rp3392
sbg439
sg8
(S'z2225'
p3393
tp3394
Rp3395
(dp3396
g13
g0
(g14
g15
(dp3397
g17
Nsg19
Nsg20
Nsg21
Nsg22
Nsg24
Nsg47
Nsg48
Nsg27
Nsg49
Nsg29
Nsg30
I01
sg32
Nsg31
Nsg23
Nsg33
Nsg34
Nstp3398
Rp3399
sbg439
sg8
(S'z4749'
p3400
tp3401
Rp3402
(dp3403
g13
g0
(g14
g15
(dp3404
g29
Nsg60
Nsg30
I01
sg62
Nsg21
Nsg31
Nsg23
Nsg33
Nsg63
Nsg32
Nsg25
Nsg65
Nsg22
Nsg64
Nsg61
Nstp3405
Rp3406
sbg439
sg8
(S'z2223'
p3407
tp3408
Rp3409
(dp3410
g13
g0
(g14
g15
(dp3411
g17
Nsg19
Nsg20
Nsg21
Nsg22
Nsg24
Nsg47
Nsg48
Nsg27
Nsg49
Nsg29
Nsg30
I01
sg32
Nsg31
Nsg23
Nsg33
Nsg34
Nstp3412
Rp3413
sbg439
sg8
(S'q23'
p3414
tp3415
Rp3416
(dp3417
g13
g0
(g14
g15
(dp3418
g29
Nsg60
Nsg30
I01
sg21
Nsg31
Nsg23
Nsg33
Nsg32
Nsg22
Nstp3419
Rp3420
sbg439
sg8
(S'z4344'
p3421
tp3422
Rp3423
(dp3424
g13
g0
(g14
g15
(dp3425
g17
Nsg19
Nsg20
Nsg21
Nsg22
Nsg24
Nsg47
Nsg48
Nsg27
Nsg49
Nsg29
Nsg30
I01
sg32
Nsg31
Nsg23
Nsg33
Nsg34
Nstp3426
Rp3427
sbg439
sg8
(S'z7479'
p3428
tp3429
Rp3430
(dp3431
g13
g0
(g14
g15
(dp3432
g29
Nsg60
Nsg30
I01
sg21
Nsg31
Nsg23
Nsg33
Nsg32
Nsg22
Nstp3433
Rp3434
sbg439
sg8
(S'z3435'
p3435
tp3436
Rp3437
(dp3438
g13
g0
(g14
g15
(dp3439
g60
Nsg61
Nsg62
Nsg21
Nsg22
Nsg63
Nsg25
Nsg48
Nsg64
Nsg49
Nsg29
Nsg30
I01
sg32
Nsg31
Nsg23
Nsg33
Nsg65
Nstp3440
Rp3441
sbg439
sg8
(S'z9394'
p3442
tp3443
Rp3444
(dp3445
g13
g0
(g14
g15
(dp3446
g17
Nsg29
Nsg30
I01
sg20
Nsg21
Nsg31
Nsg23
Nsg33
Nsg24
Nsg32
Nsg47
Nsg34
Nsg22
Nsg27
Nsg19
Nstp3447
Rp3448
sbg439
sg8
(S'z7780'
p3449
tp3450
Rp3451
(dp3452
g13
g0
(g14
g15
(dp3453
g17
Nsg19
Nsg20
Nsg21
Nsg22
Nsg23
Nsg32
Nsg47
Nsg26
Nsg27
Nsg28
Nsg29
Nsg30
I01
sg31
Nsg24
Nsg33
Nsg34
Nstp3454
Rp3455
sbg439
sg8
(S'z3844'
p3456
tp3457
Rp3458
(dp3459
g13
g0
(g14
g15
(dp3460
g17
Nsg29
Nsg30
I01
sg20
Nsg21
Nsg31
Nsg23
Nsg33
Nsg24
Nsg32
Nsg47
Nsg34
Nsg22
Nsg27
Nsg19
Nstp3461
Rp3462
sbg439
sg8
(S'z6165'
p3463
tp3464
Rp3465
(dp3466
g13
g0
(g14
g15
(dp3467
g29
Nsg60
Nsg30
I01
sg62
Nsg21
Nsg31
Nsg23
Nsg33
Nsg63
Nsg32
Nsg25
Nsg65
Nsg22
Nsg64
Nsg61
Nstp3468
Rp3469
sbg439
sg8
(S'z3945'
p3470
tp3471
Rp3472
(dp3473
g13
g0
(g14
g15
(dp3474
g17
Nsg29
Nsg30
I01
sg20
Nsg21
Nsg31
Nsg23
Nsg33
Nsg24
Nsg32
Nsg47
Nsg34
Nsg22
Nsg27
Nsg19
Nstp3475
Rp3476
sbg439
sg8
(S'z4849'
p3477
tp3478
Rp3479
(dp3480
g13
g0
(g14
g15
(dp3481
g60
Nsg61
Nsg62
Nsg21
Nsg22
Nsg63
Nsg25
Nsg48
Nsg64
Nsg49
Nsg29
Nsg30
I01
sg32
Nsg31
Nsg23
Nsg33
Nsg65
Nstp3482
Rp3483
sbg439
sg8
(S'z1416'
p3484
tp3485
Rp3486
(dp3487
g13
g0
(g14
g15
(dp3488
g17
Nsg19
Nsg20
Nsg21
Nsg22
Nsg23
Nsg24
Nsg25
Nsg26
Nsg27
Nsg28
Nsg29
Nsg30
I01
sg31
Nsg32
Nsg33
Nsg34
Nstp3489
Rp3490
sbg439
sg8
(S'z5960'
p3491
tp3492
Rp3493
(dp3494
g13
g0
(g14
g15
(dp3495
g29
Nsg60
Nsg30
I01
sg62
Nsg21
Nsg31
Nsg23
Nsg33
Nsg63
Nsg32
Nsg25
Nsg65
Nsg22
Nsg64
Nsg61
Nstp3496
Rp3497
sbg439
sg8
(S'z1417'
p3498
tp3499
Rp3500
(dp3501
g13
g0
(g14
g15
(dp3502
g60
Nsg61
Nsg62
Nsg21
Nsg22
Nsg32
Nsg25
Nsg48
Nsg63
Nsg49
Nsg64
Nsg29
Nsg30
I01
sg31
Nsg23
Nsg33
Nsg65
Nstp3503
Rp3504
sbg439
sg8
(S'z6566'
p3505
tp3506
Rp3507
(dp3508
g13
g0
(g14
g15
(dp3509
g29
Nsg60
Nsg30
I01
sg62
Nsg21
Nsg31
Nsg23
Nsg33
Nsg63
Nsg32
Nsg25
Nsg65
Nsg22
Nsg64
Nsg61
Nstp3510
Rp3511
sbg439
sg8
(S'z2123'
p3512
tp3513
Rp3514
(dp3515
g13
g0
(g14
g15
(dp3516
g17
Nsg29
Nsg30
I01
sg20
Nsg21
Nsg31
Nsg23
Nsg33
Nsg24
Nsg32
Nsg47
Nsg34
Nsg22
Nsg27
Nsg19
Nstp3517
Rp3518
sbg439
sg8
(S'z2832'
p3519
tp3520
Rp3521
(dp3522
g13
g0
(g14
g15
(dp3523
g17
Nsg29
Nsg30
I01
sg20
Nsg21
Nsg31
Nsg23
Nsg33
Nsg24
Nsg32
Nsg47
Nsg34
Nsg22
Nsg27
Nsg19
Nstp3524
Rp3525
sbg439
sg8
(S'z5256'
p3526
tp3527
Rp3528
(dp3529
g13
g0
(g14
g15
(dp3530
g17
Nsg29
Nsg30
I01
sg20
Nsg21
Nsg31
Nsg23
Nsg33
Nsg24
Nsg32
Nsg47
Nsg34
Nsg22
Nsg27
Nsg19
Nstp3531
Rp3532
sbg439
sg8
(S'z5156'
p3533
tp3534
Rp3535
(dp3536
g13
g0
(g14
g15
(dp3537
g29
Nsg60
Nsg30
I01
sg62
Nsg21
Nsg31
Nsg23
Nsg33
Nsg63
Nsg32
Nsg25
Nsg65
Nsg22
Nsg64
Nsg61
Nstp3538
Rp3539
sbg439
sg8
(S'z7678'
p3540
tp3541
Rp3542
(dp3543
g13
g0
(g14
g15
(dp3544
g17
Nsg29
Nsg30
I01
sg20
Nsg21
Nsg31
Nsg23
Nsg33
Nsg24
Nsg32
Nsg47
Nsg34
Nsg22
Nsg27
Nsg19
Nstp3545
Rp3546
sbg439
sg8
(S'z1920'
p3547
tp3548
Rp3549
(dp3550
g13
g0
(g14
g15
(dp3551
g17
Nsg19
Nsg20
Nsg21
Nsg22
Nsg24
Nsg47
Nsg48
Nsg27
Nsg49
Nsg29
Nsg30
I01
sg32
Nsg31
Nsg23
Nsg33
Nsg34
Nstp3552
Rp3553
sbg439
sg8
(S'q47'
p3554
tp3555
Rp3556
(dp3557
g13
g0
(g14
g15
(dp3558
g17
Nsg19
Nsg20
Nsg21
Nsg22
Nsg23
Nsg24
Nsg26
Nsg27
Nsg28
Nsg29
Nsg30
I01
sg31
Nsg32
Nsg33
Nsg34
Nstp3559
Rp3560
sbg439
sg8
(S'q40'
p3561
tp3562
Rp3563
(dp3564
g13
g0
(g14
g15
(dp3565
g29
Nsg60
Nsg30
I01
sg21
Nsg31
Nsg23
Nsg33
Nsg32
Nsg22
Nstp3566
Rp3567
sbg439
sg8
(S'z8790'
p3568
tp3569
Rp3570
(dp3571
g13
g0
(g14
g15
(dp3572
g17
Nsg19
Nsg20
Nsg21
Nsg22
Nsg24
Nsg47
Nsg48
Nsg27
Nsg49
Nsg29
Nsg30
I01
sg32
Nsg31
Nsg23
Nsg33
Nsg34
Nstp3573
Rp3574
sbg439
sg8
(S'z3334'
p3575
tp3576
Rp3577
(dp3578
g13
g0
(g14
g15
(dp3579
g17
Nsg29
Nsg30
I01
sg20
Nsg21
Nsg31
Nsg23
Nsg33
Nsg24
Nsg32
Nsg47
Nsg34
Nsg22
Nsg27
Nsg19
Nstp3580
Rp3581
sbg439
sg8
(S'z913'
p3582
tp3583
Rp3584
(dp3585
g13
g0
(g14
g15
(dp3586
g17
Nsg19
Nsg20
Nsg21
Nsg22
Nsg23
Nsg32
Nsg47
Nsg26
Nsg27
Nsg28
Nsg29
Nsg30
I01
sg31
Nsg24
Nsg33
Nsg34
Nstp3587
Rp3588
sbg439
sg8
(S'z4042'
p3589
tp3590
Rp3591
(dp3592
g13
g0
(g14
g15
(dp3593
g17
Nsg19
Nsg20
Nsg21
Nsg22
Nsg24
Nsg47
Nsg48
Nsg27
Nsg49
Nsg29
Nsg30
I01
sg32
Nsg31
Nsg23
Nsg33
Nsg34
Nstp3594
Rp3595
sbg439
sg8
(S'q3'
p3596
tp3597
Rp3598
(dp3599
g13
g0
(g14
g15
(dp3600
g60
Nsg61
Nsg62
Nsg21
Nsg22
Nsg63
Nsg25
Nsg48
Nsg64
Nsg49
Nsg29
Nsg30
I01
sg32
Nsg31
Nsg23
Nsg33
Nsg65
Nstp3601
Rp3602
sbg439
sg8
(S'z2326'
p3603
tp3604
Rp3605
(dp3606
g13
g0
(g14
g15
(dp3607
g29
Nsg60
Nsg30
I01
sg62
Nsg21
Nsg31
Nsg23
Nsg33
Nsg63
Nsg32
Nsg25
Nsg65
Nsg22
Nsg64
Nsg61
Nstp3608
Rp3609
sbg439
sg8
(S'z5761'
p3610
tp3611
Rp3612
(dp3613
g13
g0
(g14
g15
(dp3614
g29
Nsg60
Nsg30
I01
sg62
Nsg21
Nsg31
Nsg23
Nsg33
Nsg63
Nsg32
Nsg25
Nsg65
Nsg22
Nsg64
Nsg61
Nstp3615
Rp3616
sbg439
sg8
(S'z58'
p3617
tp3618
Rp3619
(dp3620
g13
g0
(g14
g15
(dp3621
g17
Nsg29
Nsg19
Nsg20
Nsg21
Nsg31
Nsg23
Nsg33
Nsg24
Nsg32
Nsg47
Nsg34
Nsg22
Nsg27
Nsg30
I01
stp3622
Rp3623
sbg439
sg8
(S'z6768'
p3624
tp3625
Rp3626
(dp3627
g13
g0
(g14
g15
(dp3628
g29
Nsg60
Nsg30
I01
sg62
Nsg21
Nsg31
Nsg23
Nsg33
Nsg63
Nsg32
Nsg25
Nsg65
Nsg22
Nsg64
Nsg61
Nstp3629
Rp3630
sbg439
sg8
(S'z6568'
p3631
tp3632
Rp3633
(dp3634
g13
g0
(g14
g15
(dp3635
g17
Nsg29
Nsg30
I01
sg20
Nsg21
Nsg31
Nsg23
Nsg33
Nsg24
Nsg32
Nsg47
Nsg34
Nsg22
Nsg27
Nsg19
Nstp3636
Rp3637
sbg439
sg8
(S'q38'
p3638
tp3639
Rp3640
(dp3641
g13
g0
(g14
g15
(dp3642
g29
Nsg60
Nsg30
I01
sg21
Nsg31
Nsg23
Nsg33
Nsg32
Nsg22
Nstp3643
Rp3644
sbg439
sg8
(S'z3031'
p3645
tp3646
Rp3647
(dp3648
g13
g0
(g14
g15
(dp3649
g17
Nsg29
Nsg19
Nsg20
Nsg21
Nsg31
Nsg23
Nsg33
Nsg24
Nsg32
Nsg47
Nsg34
Nsg22
Nsg27
Nsg30
I01
stp3650
Rp3651
sbg439
sg8
(S'z1317'
p3652
tp3653
Rp3654
(dp3655
g13
g0
(g14
g15
(dp3656
g17
Nsg29
Nsg30
I01
sg20
Nsg21
Nsg31
Nsg23
Nsg33
Nsg24
Nsg32
Nsg47
Nsg34
Nsg22
Nsg27
Nsg19
Nstp3657
Rp3658
sbg439
sg8
(S'z4349'
p3659
tp3660
Rp3661
(dp3662
g13
g0
(g14
g15
(dp3663
g17
Nsg29
Nsg30
I01
sg20
Nsg21
Nsg31
Nsg23
Nsg33
Nsg24
Nsg32
Nsg47
Nsg34
Nsg22
Nsg27
Nsg19
Nstp3664
Rp3665
sbg439
sg8
(S'q33'
p3666
tp3667
Rp3668
(dp3669
g13
g0
(g14
g15
(dp3670
g29
Nsg60
Nsg30
I01
sg21
Nsg31
Nsg23
Nsg33
Nsg32
Nsg22
Nstp3671
Rp3672
sbg439
sg8
(S'z2527'
p3673
tp3674
Rp3675
(dp3676
g13
g0
(g14
g15
(dp3677
g17
Nsg19
Nsg20
Nsg21
Nsg22
Nsg23
Nsg24
Nsg25
Nsg26
Nsg27
Nsg28
Nsg29
Nsg30
I01
sg31
Nsg32
Nsg33
Nsg34
Nstp3678
Rp3679
sbg439
sg8
(S'z8488'
p3680
tp3681
Rp3682
(dp3683
g13
g0
(g14
g15
(dp3684
g17
Nsg29
Nsg19
Nsg20
Nsg21
Nsg31
Nsg23
Nsg33
Nsg24
Nsg32
Nsg47
Nsg34
Nsg22
Nsg27
Nsg30
I01
stp3685
Rp3686
sbg439
sg8
(S'q28'
p3687
tp3688
Rp3689
(dp3690
g13
g0
(g14
g15
(dp3691
g60
Nsg61
Nsg62
Nsg21
Nsg22
Nsg32
Nsg48
Nsg63
Nsg49
Nsg64
Nsg29
Nsg30
I01
sg31
Nsg23
Nsg33
Nsg65
Nstp3692
Rp3693
sbg439
sg8
(S'z5356'
p3694
tp3695
Rp3696
(dp3697
g13
g0
(g14
g15
(dp3698
g17
Nsg29
Nsg19
Nsg20
Nsg21
Nsg31
Nsg23
Nsg33
Nsg24
Nsg32
Nsg47
Nsg34
Nsg22
Nsg27
Nsg30
I01
stp3699
Rp3700
sbg439
sg8
(S'q12'
p3701
tp3702
Rp3703
(dp3704
g13
g0
(g14
g15
(dp3705
g29
Nsg60
Nsg30
I01
sg62
Nsg21
Nsg31
Nsg23
Nsg33
Nsg63
Nsg32
Nsg25
Nsg65
Nsg22
Nsg64
Nsg61
Nstp3706
Rp3707
sbg439
sg8
(S'z8084'
p3708
tp3709
Rp3710
(dp3711
g13
g0
(g14
g15
(dp3712
g29
Nsg60
Nsg30
I01
sg62
Nsg21
Nsg31
Nsg23
Nsg33
Nsg63
Nsg32
Nsg25
Nsg65
Nsg22
Nsg64
Nsg61
Nstp3713
Rp3714
sbg439
sg8
(S'z9598'
p3715
tp3716
Rp3717
(dp3718
g13
g0
(g14
g15
(dp3719
g29
Nsg60
Nsg30
I01
sg21
Nsg31
Nsg23
Nsg33
Nsg32
Nsg22
Nstp3720
Rp3721
sbg439
sg8
(S'z9397'
p3722
tp3723
Rp3724
(dp3725
g13
g0
(g14
g15
(dp3726
g17
Nsg29
Nsg30
I01
sg20
Nsg21
Nsg31
Nsg23
Nsg33
Nsg24
Nsg32
Nsg47
Nsg34
Nsg22
Nsg27
Nsg19
Nstp3727
Rp3728
sbg439
sg8
(S'z8085'
p3729
tp3730
Rp3731
(dp3732
g13
g0
(g14
g15
(dp3733
g17
Nsg29
Nsg19
Nsg20
Nsg21
Nsg31
Nsg23
Nsg33
Nsg24
Nsg32
Nsg47
Nsg34
Nsg22
Nsg27
Nsg30
I01
stp3734
Rp3735
sbg439
sg8
(S'z7781'
p3736
tp3737
Rp3738
(dp3739
g13
g0
(g14
g15
(dp3740
g17
Nsg29
Nsg30
I01
sg20
Nsg21
Nsg31
Nsg23
Nsg33
Nsg24
Nsg32
Nsg47
Nsg34
Nsg22
Nsg27
Nsg19
Nstp3741
Rp3742
sbg439
sg8
(S'z7273'
p3743
tp3744
Rp3745
(dp3746
g13
g0
(g14
g15
(dp3747
g17
Nsg29
Nsg30
I01
sg20
Nsg21
Nsg31
Nsg23
Nsg33
Nsg24
Nsg32
Nsg47
Nsg34
Nsg22
Nsg27
Nsg19
Nstp3748
Rp3749
sbg439
sg8
(S'p38'
p3750
tp3751
Rp3752
(dp3753
g13
g0
(g14
g15
(dp3754
g60
Nsg61
Nsg62
Nsg21
Nsg22
Nsg63
Nsg25
Nsg48
Nsg64
Nsg49
Nsg29
Nsg30
I01
sg32
Nsg31
Nsg23
Nsg33
Nsg65
Nstp3755
Rp3756
sbg439
sg8
(S'z5257'
p3757
tp3758
Rp3759
(dp3760
g13
g0
(g14
g15
(dp3761
g17
Nsg29
Nsg19
Nsg20
Nsg21
Nsg31
Nsg23
Nsg33
Nsg24
Nsg32
Nsg47
Nsg34
Nsg22
Nsg27
Nsg30
I01
stp3762
Rp3763
sbg439
sg8
(S'p4'
p3764
tp3765
Rp3766
(dp3767
g13
g0
(g14
g15
(dp3768
g60
Nsg61
Nsg62
Nsg21
Nsg22
Nsg63
Nsg25
Nsg48
Nsg64
Nsg49
Nsg29
Nsg30
I01
sg32
Nsg31
Nsg23
Nsg33
Nsg65
Nstp3769
Rp3770
sbg7
(g136
g37
(g3106
g217
tp3771
Rp3772
(dp3773
btp3774
Rp3775
(dp3776
bsg8
(S'z6973'
p3777
tp3778
Rp3779
(dp3780
g13
g0
(g14
g15
(dp3781
g17
Nsg29
Nsg30
I01
sg20
Nsg21
Nsg31
Nsg23
Nsg33
Nsg24
Nsg32
Nsg47
Nsg34
Nsg22
Nsg27
Nsg19
Nstp3782
Rp3783
sbg439
sg8
(S'z1721'
p3784
tp3785
Rp3786
(dp3787
g13
g0
(g14
g15
(dp3788
g17
Nsg19
Nsg20
Nsg21
Nsg22
Nsg23
Nsg24
Nsg25
Nsg26
Nsg27
Nsg28
Nsg29
Nsg30
I01
sg31
Nsg32
Nsg33
Nsg34
Nstp3789
Rp3790
sbg439
sg8
(S'z3637'
p3791
tp3792
Rp3793
(dp3794
g13
g0
(g14
g15
(dp3795
g60
Nsg61
Nsg62
Nsg21
Nsg22
Nsg63
Nsg25
Nsg48
Nsg64
Nsg49
Nsg29
Nsg30
I01
sg32
Nsg31
Nsg23
Nsg33
Nsg65
Nstp3796
Rp3797
sbg439
sg8
(S'z3437'
p3798
tp3799
Rp3800
(dp3801
g13
g0
(g14
g15
(dp3802
g29
Nsg60
Nsg30
I01
sg62
Nsg21
Nsg31
Nsg23
Nsg33
Nsg63
Nsg32
Nsg25
Nsg65
Nsg22
Nsg64
Nsg61
Nstp3803
Rp3804
sbg439
sg8
(S'z2327'
p3805
tp3806
Rp3807
(dp3808
g13
g0
(g14
g15
(dp3809
g29
Nsg60
Nsg30
I01
sg62
Nsg21
Nsg31
Nsg23
Nsg33
Nsg63
Nsg32
Nsg25
Nsg65
Nsg22
Nsg64
Nsg61
Nstp3810
Rp3811
sbg439
sg8
(S'z9596'
p3812
tp3813
Rp3814
(dp3815
g13
g0
(g14
g15
(dp3816
g60
Nsg61
Nsg62
Nsg21
Nsg22
Nsg63
Nsg25
Nsg48
Nsg64
Nsg49
Nsg29
Nsg30
I01
sg32
Nsg31
Nsg23
Nsg33
Nsg65
Nstp3817
Rp3818
sbg439
sg8
(S'z2731'
p3819
tp3820
Rp3821
(dp3822
g13
g0
(g14
g15
(dp3823
g17
Nsg29
Nsg30
I01
sg20
Nsg21
Nsg31
Nsg23
Nsg33
Nsg24
Nsg32
Nsg47
Nsg34
Nsg22
Nsg27
Nsg19
Nstp3824
Rp3825
sbg439
sg8
(S'z4345'
p3826
tp3827
Rp3828
(dp3829
g13
g0
(g14
g15
(dp3830
g17
Nsg29
Nsg30
I01
sg20
Nsg21
Nsg31
Nsg23
Nsg33
Nsg24
Nsg32
Nsg47
Nsg34
Nsg22
Nsg27
Nsg19
Nstp3831
Rp3832
sbg439
sg8
(S'z8283'
p3833
tp3834
Rp3835
(dp3836
g13
g0
(g14
g15
(dp3837
g17
Nsg19
Nsg20
Nsg21
Nsg22
Nsg24
Nsg47
Nsg48
Nsg27
Nsg49
Nsg29
Nsg30
I01
sg32
Nsg31
Nsg23
Nsg33
Nsg34
Nstp3838
Rp3839
sbg439
sg8
(S'p14'
p3840
tp3841
Rp3842
(dp3843
g13
g0
(g14
g15
(dp3844
g29
Nsg60
Nsg30
I01
sg62
Nsg21
Nsg31
Nsg23
Nsg33
Nsg63
Nsg32
Nsg25
Nsg65
Nsg22
Nsg64
Nsg61
Nstp3845
Rp3846
sbg439
sg8
(S'z1014'
p3847
tp3848
Rp3849
(dp3850
g13
g0
(g14
g15
(dp3851
g17
Nsg29
Nsg30
I01
sg20
Nsg21
Nsg31
Nsg23
Nsg33
Nsg24
Nsg32
Nsg47
Nsg34
Nsg22
Nsg27
Nsg19
Nstp3852
Rp3853
sbg439
sg8
(S'z3233'
p3854
tp3855
Rp3856
(dp3857
g13
g0
(g14
g15
(dp3858
g29
Nsg60
Nsg30
I01
sg62
Nsg21
Nsg31
Nsg23
Nsg33
Nsg63
Nsg32
Nsg25
Nsg65
Nsg22
Nsg64
Nsg61
Nstp3859
Rp3860
sbg439
sg8
(S'p29'
p3861
tp3862
Rp3863
(dp3864
g13
g0
(g14
g15
(dp3865
g29
Nsg60
Nsg30
I01
sg62
Nsg21
Nsg31
Nsg23
Nsg33
Nsg63
Nsg32
Nsg25
Nsg65
Nsg22
Nsg64
Nsg61
Nstp3866
Rp3867
sbg439
sg8
(S'z5258'
p3868
tp3869
Rp3870
(dp3871
g13
g0
(g14
g15
(dp3872
g17
Nsg29
Nsg30
I01
sg20
Nsg21
Nsg31
Nsg23
Nsg33
Nsg24
Nsg32
Nsg47
Nsg34
Nsg22
Nsg27
Nsg19
Nstp3873
Rp3874
sbg439
sg8
(S'z7378'
p3875
tp3876
Rp3877
(dp3878
g13
g0
(g14
g15
(dp3879
g29
Nsg60
Nsg30
I01
sg21
Nsg31
Nsg23
Nsg33
Nsg32
Nsg22
Nstp3880
Rp3881
sbg439
sg8
(S'z2427'
p3882
tp3883
Rp3884
(dp3885
g13
g0
(g14
g15
(dp3886
g17
Nsg29
Nsg19
Nsg20
Nsg21
Nsg31
Nsg23
Nsg33
Nsg24
Nsg32
Nsg47
Nsg34
Nsg22
Nsg27
Nsg30
I01
stp3887
Rp3888
sbg439
sg8
(S'z6873'
p3889
tp3890
Rp3891
(dp3892
g13
g0
(g14
g15
(dp3893
g17
Nsg29
Nsg19
Nsg20
Nsg21
Nsg31
Nsg23
Nsg33
Nsg24
Nsg32
Nsg47
Nsg34
Nsg22
Nsg27
Nsg30
I01
stp3894
Rp3895
sbg439
sg8
(S'z98100'
p3896
tp3897
Rp3898
(dp3899
g13
g0
(g14
g15
(dp3900
g17
Nsg19
Nsg20
Nsg21
Nsg22
Nsg23
Nsg32
Nsg47
Nsg26
Nsg27
Nsg28
Nsg29
Nsg30
I01
sg31
Nsg24
Nsg33
Nsg34
Nstp3901
Rp3902
sbg439
sg8
(S'z6668'
p3903
tp3904
Rp3905
(dp3906
g13
g0
(g14
g15
(dp3907
g17
Nsg19
Nsg20
Nsg21
Nsg22
Nsg24
Nsg47
Nsg48
Nsg27
Nsg49
Nsg29
Nsg30
I01
sg32
Nsg31
Nsg23
Nsg33
Nsg34
Nstp3908
Rp3909
sbg439
sg8
(S'z2021'
p3910
tp3911
Rp3912
(dp3913
g13
g0
(g14
g15
(dp3914
g60
Nsg61
Nsg62
Nsg21
Nsg22
Nsg63
Nsg25
Nsg48
Nsg64
Nsg49
Nsg29
Nsg30
I01
sg32
Nsg31
Nsg23
Nsg33
Nsg65
Nstp3915
Rp3916
sbg439
sg8
(S'q15'
p3917
tp3918
Rp3919
(dp3920
g13
g0
(g14
g15
(dp3921
g60
Nsg61
Nsg62
Nsg21
Nsg22
Nsg32
Nsg25
Nsg48
Nsg63
Nsg49
Nsg64
Nsg29
Nsg30
I01
sg31
Nsg23
Nsg33
Nsg65
Nstp3922
Rp3923
sbg439
sg8
(S'z4446'
p3924
tp3925
Rp3926
(dp3927
g13
g0
(g14
g15
(dp3928
g60
Nsg61
Nsg62
Nsg21
Nsg22
Nsg63
Nsg25
Nsg48
Nsg64
Nsg49
Nsg29
Nsg30
I01
sg32
Nsg31
Nsg23
Nsg33
Nsg65
Nstp3929
Rp3930
sbg439
sg8
(S'z4954'
p3931
tp3932
Rp3933
(dp3934
g13
g0
(g14
g15
(dp3935
g17
Nsg29
Nsg30
I01
sg20
Nsg21
Nsg31
Nsg23
Nsg33
Nsg24
Nsg32
Nsg47
Nsg34
Nsg22
Nsg27
Nsg19
Nstp3936
Rp3937
sbg439
sg8
(S'z7580'
p3938
tp3939
Rp3940
(dp3941
g13
g0
(g14
g15
(dp3942
g17
Nsg29
Nsg30
I01
sg20
Nsg21
Nsg31
Nsg23
Nsg33
Nsg24
Nsg32
Nsg47
Nsg34
Nsg22
Nsg27
Nsg19
Nstp3943
Rp3944
sbg439
sg8
(S'z5762'
p3945
tp3946
Rp3947
(dp3948
g13
g0
(g14
g15
(dp3949
g29
Nsg60
Nsg30
I01
sg62
Nsg21
Nsg31
Nsg23
Nsg33
Nsg63
Nsg32
Nsg25
Nsg65
Nsg22
Nsg64
Nsg61
Nstp3950
Rp3951
sbg439
sg8
(S'z6567'
p3952
tp3953
Rp3954
(dp3955
g13
g0
(g14
g15
(dp3956
g17
Nsg29
Nsg30
I01
sg20
Nsg21
Nsg31
Nsg23
Nsg33
Nsg24
Nsg32
Nsg47
Nsg34
Nsg22
Nsg27
Nsg19
Nstp3957
Rp3958
sbg439
sg8
(S'z2425'
p3959
tp3960
Rp3961
(dp3962
g13
g0
(g14
g15
(dp3963
g17
Nsg19
Nsg20
Nsg21
Nsg22
Nsg24
Nsg47
Nsg48
Nsg27
Nsg49
Nsg29
Nsg30
I01
sg32
Nsg31
Nsg23
Nsg33
Nsg34
Nstp3964
Rp3965
sbg439
sg8
(S'z3741'
p3966
tp3967
Rp3968
(dp3969
g13
g0
(g14
g15
(dp3970
g17
Nsg29
Nsg30
I01
sg20
Nsg21
Nsg31
Nsg23
Nsg33
Nsg24
Nsg32
Nsg47
Nsg34
Nsg22
Nsg27
Nsg19
Nstp3971
Rp3972
sbg439
sg8
(S'p2'
p3973
tp3974
Rp3975
(dp3976
g13
g0
(g14
g15
(dp3977
g60
Nsg61
Nsg62
Nsg21
Nsg22
Nsg63
Nsg25
Nsg48
Nsg64
Nsg49
Nsg29
Nsg30
I01
sg32
Nsg31
Nsg23
Nsg33
Nsg65
Nstp3978
Rp3979
sbg7
(g136
g37
(g3106
g124
tp3980
Rp3981
(dp3982
btp3983
Rp3984
(dp3985
bsg8
(S'z9698'
p3986
tp3987
Rp3988
(dp3989
g13
g0
(g14
g15
(dp3990
g17
Nsg19
Nsg20
Nsg21
Nsg22
Nsg23
Nsg32
Nsg47
Nsg26
Nsg27
Nsg28
Nsg29
Nsg30
I01
sg31
Nsg24
Nsg33
Nsg34
Nstp3991
Rp3992
sbg439
sg8
(S'z6066'
p3993
tp3994
Rp3995
(dp3996
g13
g0
(g14
g15
(dp3997
g17
Nsg29
Nsg30
I01
sg20
Nsg21
Nsg31
Nsg23
Nsg33
Nsg24
Nsg32
Nsg47
Nsg34
Nsg22
Nsg27
Nsg19
Nstp3998
Rp3999
sbg439
sg8
(S'z8889'
p4000
tp4001
Rp4002
(dp4003
g13
g0
(g14
g15
(dp4004
g29
Nsg60
Nsg30
I01
sg62
Nsg21
Nsg31
Nsg23
Nsg33
Nsg63
Nsg32
Nsg25
Nsg65
Nsg22
Nsg64
Nsg61
Nstp4005
Rp4006
sbg439
sg8
(S'q42'
p4007
tp4008
Rp4009
(dp4010
g13
g0
(g14
g15
(dp4011
g29
Nsg60
Nsg30
I01
sg21
Nsg31
Nsg23
Nsg33
Nsg32
Nsg22
Nstp4012
Rp4013
sbg439
sg8
(S'q21'
p4014
tp4015
Rp4016
(dp4017
g13
g0
(g14
g15
(dp4018
g60
Nsg61
Nsg62
Nsg21
Nsg22
Nsg32
Nsg25
Nsg48
Nsg63
Nsg49
Nsg64
Nsg29
Nsg30
I01
sg31
Nsg23
Nsg33
Nsg65
Nstp4019
Rp4020
sbg439
sg8
(S'z6268'
p4021
tp4022
Rp4023
(dp4024
g13
g0
(g14
g15
(dp4025
g17
Nsg29
Nsg19
Nsg20
Nsg21
Nsg31
Nsg23
Nsg33
Nsg24
Nsg32
Nsg47
Nsg34
Nsg22
Nsg27
Nsg30
I01
stp4026
Rp4027
sbg439
sg8
(S'z6571'
p4028
tp4029
Rp4030
(dp4031
g13
g0
(g14
g15
(dp4032
g17
Nsg29
Nsg19
Nsg20
Nsg21
Nsg31
Nsg23
Nsg33
Nsg24
Nsg32
Nsg47
Nsg34
Nsg22
Nsg27
Nsg30
I01
stp4033
Rp4034
sbg439
sg8
(S'q26'
p4035
tp4036
Rp4037
(dp4038
g13
g0
(g14
g15
(dp4039
g29
Nsg60
Nsg30
I01
sg21
Nsg31
Nsg23
Nsg33
Nsg32
Nsg22
Nstp4040
Rp4041
sbg439
sg8
(S'z5458'
p4042
tp4043
Rp4044
(dp4045
g13
g0
(g14
g15
(dp4046
g29
Nsg60
Nsg30
I01
sg62
Nsg21
Nsg31
Nsg23
Nsg33
Nsg63
Nsg32
Nsg25
Nsg65
Nsg22
Nsg64
Nsg61
Nstp4047
Rp4048
sbg439
sg8
(S'z6167'
p4049
tp4050
Rp4051
(dp4052
g13
g0
(g14
g15
(dp4053
g17
Nsg29
Nsg19
Nsg20
Nsg21
Nsg31
Nsg23
Nsg33
Nsg24
Nsg32
Nsg47
Nsg34
Nsg22
Nsg27
Nsg30
I01
stp4054
Rp4055
sbg439
sg8
(S'z2630'
p4056
tp4057
Rp4058
(dp4059
g13
g0
(g14
g15
(dp4060
g60
Nsg61
Nsg62
Nsg21
Nsg22
Nsg63
Nsg25
Nsg48
Nsg64
Nsg49
Nsg29
Nsg30
I01
sg32
Nsg31
Nsg23
Nsg33
Nsg65
Nstp4061
Rp4062
sbg439
sg8
(S'z3642'
p4063
tp4064
Rp4065
(dp4066
g13
g0
(g14
g15
(dp4067
g17
Nsg29
Nsg30
I01
sg20
Nsg21
Nsg31
Nsg23
Nsg33
Nsg24
Nsg32
Nsg47
Nsg34
Nsg22
Nsg27
Nsg19
Nstp4068
Rp4069
sbg439
sg8
(S'z3335'
p4070
tp4071
Rp4072
(dp4073
g13
g0
(g14
g15
(dp4074
g29
Nsg60
Nsg30
I01
sg62
Nsg21
Nsg31
Nsg23
Nsg33
Nsg63
Nsg32
Nsg25
Nsg65
Nsg22
Nsg64
Nsg61
Nstp4075
Rp4076
sbg439
sg8
(S'z6166'
p4077
tp4078
Rp4079
(dp4080
g13
g0
(g14
g15
(dp4081
g29
Nsg60
Nsg30
I01
sg62
Nsg21
Nsg31
Nsg23
Nsg33
Nsg63
Nsg32
Nsg25
Nsg65
Nsg22
Nsg64
Nsg61
Nstp4082
Rp4083
sbg439
sg8
(S'z5561'
p4084
tp4085
Rp4086
(dp4087
g13
g0
(g14
g15
(dp4088
g17
Nsg29
Nsg30
I01
sg20
Nsg21
Nsg31
Nsg23
Nsg33
Nsg24
Nsg32
Nsg47
Nsg34
Nsg22
Nsg27
Nsg19
Nstp4089
Rp4090
sbg439
sg8
(S'z1619'
p4091
tp4092
Rp4093
(dp4094
g13
g0
(g14
g15
(dp4095
g60
Nsg61
Nsg62
Nsg21
Nsg22
Nsg63
Nsg25
Nsg48
Nsg64
Nsg49
Nsg29
Nsg30
I01
sg32
Nsg31
Nsg23
Nsg33
Nsg65
Nstp4096
Rp4097
sbg439
sg8
(S'z5760'
p4098
tp4099
Rp4100
(dp4101
g13
g0
(g14
g15
(dp4102
g29
Nsg60
Nsg30
I01
sg62
Nsg21
Nsg31
Nsg23
Nsg33
Nsg63
Nsg32
Nsg25
Nsg65
Nsg22
Nsg64
Nsg61
Nstp4103
Rp4104
sbg439
sg8
(S'z5962'
p4105
tp4106
Rp4107
(dp4108
g13
g0
(g14
g15
(dp4109
g60
Nsg61
Nsg62
Nsg21
Nsg22
Nsg63
Nsg25
Nsg48
Nsg64
Nsg49
Nsg29
Nsg30
I01
sg32
Nsg31
Nsg23
Nsg33
Nsg65
Nstp4110
Rp4111
sbg439
sg8
(S'z2529'
p4112
tp4113
Rp4114
(dp4115
g13
g0
(g14
g15
(dp4116
g17
Nsg29
Nsg30
I01
sg20
Nsg21
Nsg31
Nsg23
Nsg33
Nsg24
Nsg32
Nsg47
Nsg34
Nsg22
Nsg27
Nsg19
Nstp4117
Rp4118
sbg439
sg8
(S'z5660'
p4119
tp4120
Rp4121
(dp4122
g13
g0
(g14
g15
(dp4123
g29
Nsg60
Nsg30
I01
sg62
Nsg21
Nsg31
Nsg23
Nsg33
Nsg63
Nsg32
Nsg25
Nsg65
Nsg22
Nsg64
Nsg61
Nstp4124
Rp4125
sbg439
sg8
(S'z5051'
p4126
tp4127
Rp4128
(dp4129
g13
g0
(g14
g15
(dp4130
g60
Nsg61
Nsg62
Nsg21
Nsg22
Nsg63
Nsg25
Nsg48
Nsg64
Nsg49
Nsg29
Nsg30
I01
sg32
Nsg31
Nsg23
Nsg33
Nsg65
Nstp4131
Rp4132
sbg136
sg8
(S'z4854'
p4133
tp4134
Rp4135
(dp4136
g13
g0
(g14
g15
(dp4137
g17
Nsg29
Nsg19
Nsg20
Nsg21
Nsg31
Nsg23
Nsg33
Nsg24
Nsg32
Nsg47
Nsg34
Nsg22
Nsg27
Nsg30
I01
stp4138
Rp4139
sbg439
sg8
(S'z1922'
p4140
tp4141
Rp4142
(dp4143
g13
g0
(g14
g15
(dp4144
g17
Nsg29
Nsg30
I01
sg20
Nsg21
Nsg31
Nsg23
Nsg33
Nsg24
Nsg32
Nsg47
Nsg34
Nsg22
Nsg27
Nsg19
Nstp4145
Rp4146
sbg439
sg8
(S'z5255'
p4147
tp4148
Rp4149
(dp4150
g13
g0
(g14
g15
(dp4151
g17
Nsg29
Nsg30
I01
sg20
Nsg21
Nsg31
Nsg23
Nsg33
Nsg24
Nsg32
Nsg47
Nsg34
Nsg22
Nsg27
Nsg19
Nstp4152
Rp4153
sbg439
sg8
(S'z8689'
p4154
tp4155
Rp4156
(dp4157
g13
g0
(g14
g15
(dp4158
g29
Nsg60
Nsg30
I01
sg62
Nsg21
Nsg31
Nsg23
Nsg33
Nsg63
Nsg32
Nsg25
Nsg65
Nsg22
Nsg64
Nsg61
Nstp4159
Rp4160
sbg439
sg8
(S'z9798'
p4161
tp4162
Rp4163
(dp4164
g13
g0
(g14
g15
(dp4165
g29
Nsg60
Nsg30
I01
sg62
Nsg21
Nsg31
Nsg23
Nsg33
Nsg63
Nsg32
Nsg25
Nsg65
Nsg22
Nsg64
Nsg61
Nstp4166
Rp4167
sbg439
sg8
(S'p37'
p4168
tp4169
Rp4170
(dp4171
g13
g0
(g14
g15
(dp4172
g29
Nsg60
Nsg30
I01
sg62
Nsg21
Nsg31
Nsg23
Nsg33
Nsg63
Nsg32
Nsg25
Nsg65
Nsg22
Nsg64
Nsg61
Nstp4173
Rp4174
sbg439
sg8
(S'z7576'
p4175
tp4176
Rp4177
(dp4178
g13
g0
(g14
g15
(dp4179
g29
Nsg60
Nsg30
I01
sg62
Nsg21
Nsg31
Nsg23
Nsg33
Nsg63
Nsg32
Nsg25
Nsg65
Nsg22
Nsg64
Nsg61
Nstp4180
Rp4181
sbg439
sg8
(S'z6465'
p4182
tp4183
Rp4184
(dp4185
g13
g0
(g14
g15
(dp4186
g17
Nsg29
Nsg19
Nsg20
Nsg21
Nsg31
Nsg23
Nsg33
Nsg24
Nsg32
Nsg47
Nsg34
Nsg22
Nsg27
Nsg30
I01
stp4187
Rp4188
sbg439
sg8
(S'z2530'
p4189
tp4190
Rp4191
(dp4192
g13
g0
(g14
g15
(dp4193
g17
Nsg29
Nsg19
Nsg20
Nsg21
Nsg31
Nsg23
Nsg33
Nsg24
Nsg32
Nsg47
Nsg34
Nsg22
Nsg27
Nsg30
I01
stp4194
Rp4195
sbg439
sg8
(S'q1'
p4196
tp4197
Rp4198
(dp4199
g13
g0
(g14
g15
(dp4200
g17
Nsg19
Nsg20
Nsg21
Nsg22
Nsg23
Nsg24
Nsg25
Nsg26
Nsg27
Nsg28
Nsg29
Nsg30
I01
sg31
Nsg32
Nsg33
Nsg34
Nstp4201
Rp4202
sbg136
sg8
(S'z9496'
p4203
tp4204
Rp4205
(dp4206
g13
g0
(g14
g15
(dp4207
g29
Nsg60
Nsg30
I01
sg62
Nsg21
Nsg31
Nsg23
Nsg33
Nsg63
Nsg32
Nsg25
Nsg65
Nsg22
Nsg64
Nsg61
Nstp4208
Rp4209
sbg439
sg8
(S'z6670'
p4210
tp4211
Rp4212
(dp4213
g13
g0
(g14
g15
(dp4214
g17
Nsg19
Nsg20
Nsg21
Nsg22
Nsg23
Nsg32
Nsg47
Nsg26
Nsg27
Nsg28
Nsg29
Nsg30
I01
sg31
Nsg24
Nsg33
Nsg34
Nstp4215
Rp4216
sbg439
sg8
(S'z7579'
p4217
tp4218
Rp4219
(dp4220
g13
g0
(g14
g15
(dp4221
g29
Nsg60
Nsg30
I01
sg62
Nsg21
Nsg31
Nsg23
Nsg33
Nsg63
Nsg32
Nsg25
Nsg65
Nsg22
Nsg64
Nsg61
Nstp4222
Rp4223
sbg439
sg8
(S'z1215'
p4224
tp4225
Rp4226
(dp4227
g13
g0
(g14
g15
(dp4228
g17
Nsg19
Nsg20
Nsg21
Nsg22
Nsg23
Nsg24
Nsg25
Nsg26
Nsg27
Nsg28
Nsg29
Nsg30
I01
sg31
Nsg32
Nsg33
Nsg34
Nstp4229
Rp4230
sbg439
sg8
(S'p45'
p4231
tp4232
Rp4233
(dp4234
g13
g0
(g14
g15
(dp4235
g29
Nsg60
Nsg30
I01
sg62
Nsg21
Nsg31
Nsg23
Nsg33
Nsg63
Nsg32
Nsg25
Nsg65
Nsg22
Nsg64
Nsg61
Nstp4236
Rp4237
sbg439
sg8
(S'z3436'
p4238
tp4239
Rp4240
(dp4241
g13
g0
(g14
g15
(dp4242
g29
Nsg60
Nsg30
I01
sg62
Nsg21
Nsg31
Nsg23
Nsg33
Nsg63
Nsg32
Nsg25
Nsg65
Nsg22
Nsg64
Nsg61
Nstp4243
Rp4244
sbg439
sg8
(S'z1315'
p4245
tp4246
Rp4247
(dp4248
g13
g0
(g14
g15
(dp4249
g17
Nsg19
Nsg20
Nsg21
Nsg22
Nsg24
Nsg47
Nsg48
Nsg27
Nsg49
Nsg29
Nsg30
I01
sg32
Nsg31
Nsg23
Nsg33
Nsg34
Nstp4250
Rp4251
sbg439
sg8
(S'p49'
p4252
tp4253
Rp4254
(dp4255
g13
g0
(g14
g15
(dp4256
g29
Nsg60
Nsg30
I01
sg62
Nsg21
Nsg31
Nsg23
Nsg33
Nsg63
Nsg32
Nsg25
Nsg65
Nsg22
Nsg64
Nsg61
Nstp4257
Rp4258
sbg439
sg8
(S'z9194'
p4259
tp4260
Rp4261
(dp4262
g13
g0
(g14
g15
(dp4263
g29
Nsg60
Nsg30
I01
sg62
Nsg21
Nsg31
Nsg23
Nsg33
Nsg63
Nsg32
Nsg25
Nsg65
Nsg22
Nsg64
Nsg61
Nstp4264
Rp4265
sbg439
sg8
(S'z2730'
p4266
tp4267
Rp4268
(dp4269
g13
g0
(g14
g15
(dp4270
g29
Nsg60
Nsg30
I01
sg62
Nsg21
Nsg31
Nsg23
Nsg33
Nsg63
Nsg32
Nsg25
Nsg65
Nsg22
Nsg64
Nsg61
Nstp4271
Rp4272
sbg439
sg8
(S'z4147'
p4273
tp4274
Rp4275
(dp4276
g13
g0
(g14
g15
(dp4277
g17
Nsg29
Nsg19
Nsg20
Nsg21
Nsg31
Nsg23
Nsg33
Nsg24
Nsg32
Nsg47
Nsg34
Nsg22
Nsg27
Nsg30
I01
stp4278
Rp4279
sbg439
sg8
(S'z8892'
p4280
tp4281
Rp4282
(dp4283
g13
g0
(g14
g15
(dp4284
g29
Nsg60
Nsg30
I01
sg21
Nsg31
Nsg23
Nsg33
Nsg32
Nsg22
Nstp4285
Rp4286
sbg439
sg8
(S'z3841'
p4287
tp4288
Rp4289
(dp4290
g13
g0
(g14
g15
(dp4291
g17
Nsg19
Nsg20
Nsg21
Nsg22
Nsg24
Nsg47
Nsg48
Nsg27
Nsg49
Nsg29
Nsg30
I01
sg32
Nsg31
Nsg23
Nsg33
Nsg34
Nstp4292
Rp4293
sbg439
sg8
(S'z5152'
p4294
tp4295
Rp4296
(dp4297
g13
g0
(g14
g15
(dp4298
g60
Nsg61
Nsg62
Nsg21
Nsg22
Nsg63
Nsg25
Nsg48
Nsg64
Nsg49
Nsg29
Nsg30
I01
sg32
Nsg31
Nsg23
Nsg33
Nsg65
Nstp4299
Rp4300
sbg136
sg8
(S'z2023'
p4301
tp4302
Rp4303
(dp4304
g13
g0
(g14
g15
(dp4305
g17
Nsg29
Nsg30
I01
sg20
Nsg21
Nsg31
Nsg23
Nsg33
Nsg24
Nsg32
Nsg47
Nsg34
Nsg22
Nsg27
Nsg19
Nstp4306
Rp4307
sbg439
sg8
(S'z1924'
p4308
tp4309
Rp4310
(dp4311
g13
g0
(g14
g15
(dp4312
g17
Nsg29
Nsg30
I01
sg20
Nsg21
Nsg31
Nsg23
Nsg33
Nsg24
Nsg32
Nsg47
Nsg34
Nsg22
Nsg27
Nsg19
Nstp4313
Rp4314
sbg439
sg8
(S'z5253'
p4315
tp4316
Rp4317
(dp4318
g13
g0
(g14
g15
(dp4319
g17
Nsg19
Nsg20
Nsg21
Nsg22
Nsg24
Nsg47
Nsg48
Nsg27
Nsg49
Nsg29
Nsg30
I01
sg32
Nsg31
Nsg23
Nsg33
Nsg34
Nstp4320
Rp4321
sbg136
sg8
(S'z3940'
p4322
tp4323
Rp4324
(dp4325
g13
g0
(g14
g15
(dp4326
g29
Nsg60
Nsg30
I01
sg62
Nsg21
Nsg31
Nsg23
Nsg33
Nsg63
Nsg32
Nsg25
Nsg65
Nsg22
Nsg64
Nsg61
Nstp4327
Rp4328
sbg439
sg8
(S'z9395'
p4329
tp4330
Rp4331
(dp4332
g13
g0
(g14
g15
(dp4333
g17
Nsg19
Nsg20
Nsg21
Nsg22
Nsg24
Nsg47
Nsg48
Nsg27
Nsg49
Nsg29
Nsg30
I01
sg32
Nsg31
Nsg23
Nsg33
Nsg34
Nstp4334
Rp4335
sbg439
sg8
(S'p26'
p4336
tp4337
Rp4338
(dp4339
g13
g0
(g14
g15
(dp4340
g29
Nsg60
Nsg30
I01
sg62
Nsg21
Nsg31
Nsg23
Nsg33
Nsg63
Nsg32
Nsg25
Nsg65
Nsg22
Nsg64
Nsg61
Nstp4341
Rp4342
sbg439
sg8
(S'z1113'
p4343
tp4344
Rp4345
(dp4346
g13
g0
(g14
g15
(dp4347
g29
Nsg60
Nsg30
I01
sg62
Nsg21
Nsg31
Nsg23
Nsg33
Nsg63
Nsg32
Nsg25
Nsg65
Nsg22
Nsg64
Nsg61
Nstp4348
Rp4349
sbg439
sg8
(S'z2328'
p4350
tp4351
Rp4352
(dp4353
g13
g0
(g14
g15
(dp4354
g17
Nsg29
Nsg19
Nsg20
Nsg21
Nsg31
Nsg23
Nsg33
Nsg24
Nsg32
Nsg47
Nsg34
Nsg22
Nsg27
Nsg30
I01
stp4355
Rp4356
sbg439
sg8
(S'z5860'
p4357
tp4358
Rp4359
(dp4360
g13
g0
(g14
g15
(dp4361
g17
Nsg29
Nsg30
I01
sg20
Nsg21
Nsg31
Nsg23
Nsg33
Nsg24
Nsg32
Nsg47
Nsg34
Nsg22
Nsg27
Nsg19
Nstp4362
Rp4363
sbg439
sg8
(S'z6569'
p4364
tp4365
Rp4366
(dp4367
g13
g0
(g14
g15
(dp4368
g29
Nsg60
Nsg30
I01
sg62
Nsg21
Nsg31
Nsg23
Nsg33
Nsg63
Nsg32
Nsg25
Nsg65
Nsg22
Nsg64
Nsg61
Nstp4369
Rp4370
sbg439
sg8
(S'z4951'
p4371
tp4372
Rp4373
(dp4374
g13
g0
(g14
g15
(dp4375
g17
Nsg29
Nsg30
I01
sg20
Nsg21
Nsg31
Nsg23
Nsg33
Nsg24
Nsg32
Nsg47
Nsg34
Nsg22
Nsg27
Nsg19
Nstp4376
Rp4377
sbg439
sg8
(S'z1719'
p4378
tp4379
Rp4380
(dp4381
g13
g0
(g14
g15
(dp4382
g60
Nsg61
Nsg62
Nsg21
Nsg22
Nsg63
Nsg25
Nsg48
Nsg64
Nsg49
Nsg29
Nsg30
I01
sg32
Nsg31
Nsg23
Nsg33
Nsg65
Nstp4383
Rp4384
sbg439
sg8
(S'z99100'
p4385
tp4386
Rp4387
(dp4388
g13
g0
(g14
g15
(dp4389
g17
Nsg29
Nsg19
Nsg20
Nsg21
Nsg31
Nsg23
Nsg33
Nsg24
Nsg32
Nsg47
Nsg34
Nsg22
Nsg27
Nsg30
I01
stp4390
Rp4391
sbg439
sg8
(S'z1213'
p4392
tp4393
Rp4394
(dp4395
g13
g0
(g14
g15
(dp4396
g60
Nsg61
Nsg62
Nsg21
Nsg22
Nsg63
Nsg25
Nsg48
Nsg64
Nsg49
Nsg29
Nsg30
I01
sg32
Nsg31
Nsg23
Nsg33
Nsg65
Nstp4397
Rp4398
sbg439
sg8
(S'z6971'
p4399
tp4400
Rp4401
(dp4402
g13
g0
(g14
g15
(dp4403
g17
Nsg29
Nsg30
I01
sg20
Nsg21
Nsg31
Nsg23
Nsg33
Nsg24
Nsg32
Nsg47
Nsg34
Nsg22
Nsg27
Nsg19
Nstp4404
Rp4405
sbg439
sg8
(S'z8287'
p4406
tp4407
Rp4408
(dp4409
g13
g0
(g14
g15
(dp4410
g17
Nsg29
Nsg19
Nsg20
Nsg21
Nsg31
Nsg23
Nsg33
Nsg24
Nsg32
Nsg47
Nsg34
Nsg22
Nsg27
Nsg30
I01
stp4411
Rp4412
sbg439
sg8
(S'q34'
p4413
tp4414
Rp4415
(dp4416
g13
g0
(g14
g15
(dp4417
g29
Nsg60
Nsg30
I01
sg21
Nsg31
Nsg23
Nsg33
Nsg32
Nsg22
Nstp4418
Rp4419
sbg439
sg8
(S'z2934'
p4420
tp4421
Rp4422
(dp4423
g13
g0
(g14
g15
(dp4424
g29
Nsg60
Nsg30
I01
sg21
Nsg31
Nsg23
Nsg33
Nsg32
Nsg22
Nstp4425
Rp4426
sbg439
sg8
(S'z4953'
p4427
tp4428
Rp4429
(dp4430
g13
g0
(g14
g15
(dp4431
g17
Nsg29
Nsg30
I01
sg20
Nsg21
Nsg31
Nsg23
Nsg33
Nsg24
Nsg32
Nsg47
Nsg34
Nsg22
Nsg27
Nsg19
Nstp4432
Rp4433
sbg439
sg8
(S'z3843'
p4434
tp4435
Rp4436
(dp4437
g13
g0
(g14
g15
(dp4438
g17
Nsg29
Nsg19
Nsg20
Nsg21
Nsg31
Nsg23
Nsg33
Nsg24
Nsg32
Nsg47
Nsg34
Nsg22
Nsg27
Nsg30
I01
stp4439
Rp4440
sbg439
sg8
(S'q49'
p4441
tp4442
Rp4443
(dp4444
g13
g0
(g14
g15
(dp4445
g29
Nsg60
Nsg30
I01
sg21
Nsg31
Nsg23
Nsg33
Nsg32
Nsg22
Nstp4446
Rp4447
sbg439
sg8
(S'q24'
p4448
tp4449
Rp4450
(dp4451
g13
g0
(g14
g15
(dp4452
g29
Nsg60
Nsg30
I01
sg21
Nsg31
Nsg23
Nsg33
Nsg32
Nsg22
Nstp4453
Rp4454
sbg439
sg8
(S'q19'
p4455
tp4456
Rp4457
(dp4458
g13
g0
(g14
g15
(dp4459
g17
Nsg19
Nsg20
Nsg21
Nsg22
Nsg23
Nsg24
Nsg25
Nsg26
Nsg27
Nsg28
Nsg29
Nsg30
I01
sg31
Nsg32
Nsg33
Nsg34
Nstp4460
Rp4461
sbg439
sg8
(S'p12'
p4462
tp4463
Rp4464
(dp4465
g13
g0
(g14
g15
(dp4466
g29
Nsg60
Nsg30
I01
sg62
Nsg21
Nsg31
Nsg23
Nsg33
Nsg63
Nsg32
Nsg25
Nsg65
Nsg22
Nsg64
Nsg61
Nstp4467
Rp4468
sbg439
sg8
(S'z3539'
p4469
tp4470
Rp4471
(dp4472
g13
g0
(g14
g15
(dp4473
g17
Nsg29
Nsg30
I01
sg20
Nsg21
Nsg31
Nsg23
Nsg33
Nsg24
Nsg32
Nsg47
Nsg34
Nsg22
Nsg27
Nsg19
Nstp4474
Rp4475
sbg439
sg8
(S'z3236'
p4476
tp4477
Rp4478
(dp4479
g13
g0
(g14
g15
(dp4480
g29
Nsg60
Nsg30
I01
sg62
Nsg21
Nsg31
Nsg23
Nsg33
Nsg63
Nsg32
Nsg25
Nsg65
Nsg22
Nsg64
Nsg61
Nstp4481
Rp4482
sbg439
sg8
(S'z3536'
p4483
tp4484
Rp4485
(dp4486
g13
g0
(g14
g15
(dp4487
g17
Nsg19
Nsg20
Nsg21
Nsg22
Nsg24
Nsg47
Nsg48
Nsg27
Nsg49
Nsg29
Nsg30
I01
sg32
Nsg31
Nsg23
Nsg33
Nsg34
Nstp4488
Rp4489
sbg439
sg8
(S'z7681'
p4490
tp4491
Rp4492
(dp4493
g13
g0
(g14
g15
(dp4494
g17
Nsg29
Nsg30
I01
sg20
Nsg21
Nsg31
Nsg23
Nsg33
Nsg24
Nsg32
Nsg47
Nsg34
Nsg22
Nsg27
Nsg19
Nstp4495
Rp4496
sbg439
sg8
(S'z7376'
p4497
tp4498
Rp4499
(dp4500
g13
g0
(g14
g15
(dp4501
g29
Nsg60
Nsg30
I01
sg62
Nsg21
Nsg31
Nsg23
Nsg33
Nsg63
Nsg32
Nsg25
Nsg65
Nsg22
Nsg64
Nsg61
Nstp4502
Rp4503
sbg439
sg8
(S'z6871'
p4504
tp4505
Rp4506
(dp4507
g13
g0
(g14
g15
(dp4508
g17
Nsg19
Nsg20
Nsg21
Nsg22
Nsg24
Nsg47
Nsg48
Nsg27
Nsg49
Nsg29
Nsg30
I01
sg32
Nsg31
Nsg23
Nsg33
Nsg34
Nstp4509
Rp4510
sbg439
sg8
(S'z3032'
p4511
tp4512
Rp4513
(dp4514
g13
g0
(g14
g15
(dp4515
g17
Nsg29
Nsg30
I01
sg20
Nsg21
Nsg31
Nsg23
Nsg33
Nsg24
Nsg32
Nsg47
Nsg34
Nsg22
Nsg27
Nsg19
Nstp4516
Rp4517
sbg439
sg8
(S'z5560'
p4518
tp4519
Rp4520
(dp4521
g13
g0
(g14
g15
(dp4522
g29
Nsg60
Nsg30
I01
sg62
Nsg21
Nsg31
Nsg23
Nsg33
Nsg63
Nsg32
Nsg25
Nsg65
Nsg22
Nsg64
Nsg61
Nstp4523
Rp4524
sbg439
sg8
(S'z1618'
p4525
tp4526
Rp4527
(dp4528
g13
g0
(g14
g15
(dp4529
g60
Nsg61
Nsg62
Nsg21
Nsg22
Nsg63
Nsg25
Nsg48
Nsg64
Nsg49
Nsg29
Nsg30
I01
sg32
Nsg31
Nsg23
Nsg33
Nsg65
Nstp4530
Rp4531
sbg439
sg8
(S'z4247'
p4532
tp4533
Rp4534
(dp4535
g13
g0
(g14
g15
(dp4536
g17
Nsg29
Nsg19
Nsg20
Nsg21
Nsg31
Nsg23
Nsg33
Nsg24
Nsg32
Nsg47
Nsg34
Nsg22
Nsg27
Nsg30
I01
stp4537
Rp4538
sbg439
sg8
(S'q9'
p4539
tp4540
Rp4541
(dp4542
g13
g0
(g14
g15
(dp4543
g29
Nsg60
Nsg30
I01
sg62
Nsg21
Nsg31
Nsg23
Nsg33
Nsg63
Nsg32
Nsg25
Nsg65
Nsg22
Nsg64
Nsg61
Nstp4544
Rp4545
sbg439
sg8
(S'z3033'
p4546
tp4547
Rp4548
(dp4549
g13
g0
(g14
g15
(dp4550
g17
Nsg29
Nsg30
I01
sg20
Nsg21
Nsg31
Nsg23
Nsg33
Nsg24
Nsg32
Nsg47
Nsg34
Nsg22
Nsg27
Nsg19
Nstp4551
Rp4552
sbg439
sg8
(S'z4651'
p4553
tp4554
Rp4555
(dp4556
g13
g0
(g14
g15
(dp4557
g17
Nsg29
Nsg30
I01
sg20
Nsg21
Nsg31
Nsg23
Nsg33
Nsg24
Nsg32
Nsg47
Nsg34
Nsg22
Nsg27
Nsg19
Nstp4558
Rp4559
sbg439
sg8
(S'q36'
p4560
tp4561
Rp4562
(dp4563
g13
g0
(g14
g15
(dp4564
g29
Nsg60
Nsg30
I01
sg21
Nsg31
Nsg23
Nsg33
Nsg32
Nsg22
Nstp4565
Rp4566
sbg439
sg8
(S'z7881'
p4567
tp4568
Rp4569
(dp4570
g13
g0
(g14
g15
(dp4571
g17
Nsg19
Nsg20
Nsg21
Nsg22
Nsg24
Nsg47
Nsg48
Nsg27
Nsg49
Nsg29
Nsg30
I01
sg32
Nsg31
Nsg23
Nsg33
Nsg34
Nstp4572
Rp4573
sbg439
sg8
(S'z4650'
p4574
tp4575
Rp4576
(dp4577
g13
g0
(g14
g15
(dp4578
g17
Nsg29
Nsg30
I01
sg20
Nsg21
Nsg31
Nsg23
Nsg33
Nsg24
Nsg32
Nsg47
Nsg34
Nsg22
Nsg27
Nsg19
Nstp4579
Rp4580
sbg439
sg8
(S'p8'
p4581
tp4582
Rp4583
(dp4584
g13
g0
(g14
g15
(dp4585
g60
Nsg61
Nsg62
Nsg21
Nsg22
Nsg63
Nsg25
Nsg48
Nsg64
Nsg49
Nsg29
Nsg30
I01
sg32
Nsg31
Nsg23
Nsg33
Nsg65
Nstp4586
Rp4587
sbg439
sg8
(S'q22'
p4588
tp4589
Rp4590
(dp4591
g13
g0
(g14
g15
(dp4592
g60
Nsg61
Nsg62
Nsg21
Nsg22
Nsg63
Nsg25
Nsg48
Nsg64
Nsg49
Nsg29
Nsg30
I01
sg32
Nsg31
Nsg23
Nsg33
Nsg65
Nstp4593
Rp4594
sbg439
sg8
(S'z5358'
p4595
tp4596
Rp4597
(dp4598
g13
g0
(g14
g15
(dp4599
g29
Nsg60
Nsg30
I01
sg62
Nsg21
Nsg31
Nsg23
Nsg33
Nsg63
Nsg32
Nsg25
Nsg65
Nsg22
Nsg64
Nsg61
Nstp4600
Rp4601
sbg439
sg8
(S'z1518'
p4602
tp4603
Rp4604
(dp4605
g13
g0
(g14
g15
(dp4606
g60
Nsg61
Nsg62
Nsg21
Nsg22
Nsg63
Nsg25
Nsg48
Nsg64
Nsg49
Nsg29
Nsg30
I01
sg32
Nsg31
Nsg23
Nsg33
Nsg65
Nstp4607
Rp4608
sbg439
sg8
(S'p10'
p4609
tp4610
Rp4611
(dp4612
g13
g0
(g14
g15
(dp4613
g29
Nsg60
Nsg30
I01
sg62
Nsg21
Nsg31
Nsg23
Nsg33
Nsg63
Nsg32
Nsg25
Nsg65
Nsg22
Nsg64
Nsg61
Nstp4614
Rp4615
sbg439
sg8
(S'z7173'
p4616
tp4617
Rp4618
(dp4619
g13
g0
(g14
g15
(dp4620
g60
Nsg61
Nsg62
Nsg21
Nsg22
Nsg63
Nsg25
Nsg48
Nsg64
Nsg49
Nsg29
Nsg30
I01
sg32
Nsg31
Nsg23
Nsg33
Nsg65
Nstp4621
Rp4622
sbg439
sg8
(S'z7778'
p4623
tp4624
Rp4625
(dp4626
g13
g0
(g14
g15
(dp4627
g17
Nsg19
Nsg20
Nsg21
Nsg22
Nsg24
Nsg47
Nsg48
Nsg27
Nsg49
Nsg29
Nsg30
I01
sg32
Nsg31
Nsg23
Nsg33
Nsg34
Nstp4628
Rp4629
sbg439
sg8
(S'z5254'
p4630
tp4631
Rp4632
(dp4633
g13
g0
(g14
g15
(dp4634
g17
Nsg29
Nsg30
I01
sg20
Nsg21
Nsg31
Nsg23
Nsg33
Nsg24
Nsg32
Nsg47
Nsg34
Nsg22
Nsg27
Nsg19
Nstp4635
Rp4636
sbg439
sg8
(S'z7172'
p4637
tp4638
Rp4639
(dp4640
g13
g0
(g14
g15
(dp4641
g60
Nsg61
Nsg62
Nsg21
Nsg22
Nsg63
Nsg25
Nsg48
Nsg64
Nsg49
Nsg29
Nsg30
I01
sg32
Nsg31
Nsg23
Nsg33
Nsg65
Nstp4642
Rp4643
sbg439
sg8
(S'z46'
p4644
tp4645
Rp4646
(dp4647
g13
g0
(g14
g15
(dp4648
g29
Nsg60
Nsg30
I01
sg62
Nsg21
Nsg31
Nsg23
Nsg33
Nsg63
Nsg32
Nsg25
Nsg65
Nsg22
Nsg64
Nsg61
Nstp4649
Rp4650
sbg439
sg8
(S'z2629'
p4651
tp4652
Rp4653
(dp4654
g13
g0
(g14
g15
(dp4655
g17
Nsg29
Nsg30
I01
sg20
Nsg21
Nsg31
Nsg23
Nsg33
Nsg24
Nsg32
Nsg47
Nsg34
Nsg22
Nsg27
Nsg19
Nstp4656
Rp4657
sbg439
sg8
(S'z9799'
p4658
tp4659
Rp4660
(dp4661
g13
g0
(g14
g15
(dp4662
g29
Nsg60
Nsg30
I01
sg62
Nsg21
Nsg31
Nsg23
Nsg33
Nsg63
Nsg32
Nsg25
Nsg65
Nsg22
Nsg64
Nsg61
Nstp4663
Rp4664
sbg439
sg8
(S'z47'
p4665
tp4666
Rp4667
(dp4668
g13
g0
(g14
g15
(dp4669
g17
Nsg29
Nsg30
I01
sg20
Nsg21
Nsg31
Nsg23
Nsg33
Nsg24
Nsg32
Nsg47
Nsg34
Nsg22
Nsg27
Nsg19
Nstp4670
Rp4671
sbg439
sg8
(S'z3440'
p4672
tp4673
Rp4674
(dp4675
g13
g0
(g14
g15
(dp4676
g17
Nsg29
Nsg30
I01
sg20
Nsg21
Nsg31
Nsg23
Nsg33
Nsg24
Nsg32
Nsg47
Nsg34
Nsg22
Nsg27
Nsg19
Nstp4677
Rp4678
sbg439
sg8
(S'z9093'
p4679
tp4680
Rp4681
(dp4682
g13
g0
(g14
g15
(dp4683
g29
Nsg60
Nsg30
I01
sg62
Nsg21
Nsg31
Nsg23
Nsg33
Nsg63
Nsg32
Nsg25
Nsg65
Nsg22
Nsg64
Nsg61
Nstp4684
Rp4685
sbg439
sg8
(S'z2830'
p4686
tp4687
Rp4688
(dp4689
g13
g0
(g14
g15
(dp4690
g29
Nsg60
Nsg30
I01
sg62
Nsg21
Nsg31
Nsg23
Nsg33
Nsg63
Nsg32
Nsg25
Nsg65
Nsg22
Nsg64
Nsg61
Nstp4691
Rp4692
sbg439
sg8
(S'z4044'
p4693
tp4694
Rp4695
(dp4696
g13
g0
(g14
g15
(dp4697
g17
Nsg29
Nsg30
I01
sg20
Nsg21
Nsg31
Nsg23
Nsg33
Nsg24
Nsg32
Nsg47
Nsg34
Nsg22
Nsg27
Nsg19
Nstp4698
Rp4699
sbg439
sg8
(S'z7981'
p4700
tp4701
Rp4702
(dp4703
g13
g0
(g14
g15
(dp4704
g17
Nsg19
Nsg20
Nsg21
Nsg22
Nsg24
Nsg47
Nsg48
Nsg27
Nsg49
Nsg29
Nsg30
I01
sg32
Nsg31
Nsg23
Nsg33
Nsg34
Nstp4705
Rp4706
sbg439
sg8
(S'z3237'
p4707
tp4708
Rp4709
(dp4710
g13
g0
(g14
g15
(dp4711
g29
Nsg60
Nsg30
I01
sg62
Nsg21
Nsg31
Nsg23
Nsg33
Nsg63
Nsg32
Nsg25
Nsg65
Nsg22
Nsg64
Nsg61
Nstp4712
Rp4713
sbg439
sg8
(S'z1516'
p4714
tp4715
Rp4716
(dp4717
g13
g0
(g14
g15
(dp4718
g29
Nsg60
Nsg30
I01
sg62
Nsg21
Nsg31
Nsg23
Nsg33
Nsg63
Nsg32
Nsg25
Nsg65
Nsg22
Nsg64
Nsg61
Nstp4719
Rp4720
sbg439
sg8
(S'z3133'
p4721
tp4722
Rp4723
(dp4724
g13
g0
(g14
g15
(dp4725
g60
Nsg61
Nsg62
Nsg21
Nsg22
Nsg63
Nsg25
Nsg48
Nsg64
Nsg49
Nsg29
Nsg30
I01
sg32
Nsg31
Nsg23
Nsg33
Nsg65
Nstp4726
Rp4727
sbg439
sg8
(S'z8690'
p4728
tp4729
Rp4730
(dp4731
g13
g0
(g14
g15
(dp4732
g17
Nsg19
Nsg20
Nsg21
Nsg22
Nsg24
Nsg47
Nsg48
Nsg27
Nsg49
Nsg29
Nsg30
I01
sg32
Nsg31
Nsg23
Nsg33
Nsg34
Nstp4733
Rp4734
sbg439
sg8
(S'z9193'
p4735
tp4736
Rp4737
(dp4738
g13
g0
(g14
g15
(dp4739
g60
Nsg61
Nsg62
Nsg21
Nsg22
Nsg63
Nsg25
Nsg48
Nsg64
Nsg49
Nsg29
Nsg30
I01
sg32
Nsg31
Nsg23
Nsg33
Nsg65
Nstp4740
Rp4741
sbg439
sg8
(S'z7377'
p4742
tp4743
Rp4744
(dp4745
g13
g0
(g14
g15
(dp4746
g29
Nsg60
Nsg30
I01
sg62
Nsg21
Nsg31
Nsg23
Nsg33
Nsg63
Nsg32
Nsg25
Nsg65
Nsg22
Nsg64
Nsg61
Nstp4747
Rp4748
sbg439
sg8
(S'z3132'
p4749
tp4750
Rp4751
(dp4752
g13
g0
(g14
g15
(dp4753
g17
Nsg19
Nsg20
Nsg21
Nsg22
Nsg24
Nsg47
Nsg48
Nsg27
Nsg49
Nsg29
Nsg30
I01
sg32
Nsg31
Nsg23
Nsg33
Nsg34
Nstp4754
Rp4755
sbg439
sg8
(S'z4549'
p4756
tp4757
Rp4758
(dp4759
g13
g0
(g14
g15
(dp4760
g29
Nsg60
Nsg30
I01
sg62
Nsg21
Nsg31
Nsg23
Nsg33
Nsg63
Nsg32
Nsg25
Nsg65
Nsg22
Nsg64
Nsg61
Nstp4761
Rp4762
sbg439
sg8
(S'z5658'
p4763
tp4764
Rp4765
(dp4766
g13
g0
(g14
g15
(dp4767
g29
Nsg60
Nsg30
I01
sg62
Nsg21
Nsg31
Nsg23
Nsg33
Nsg63
Nsg32
Nsg25
Nsg65
Nsg22
Nsg64
Nsg61
Nstp4768
Rp4769
sbg439
sg8
(S'q31'
p4770
tp4771
Rp4772
(dp4773
g13
g0
(g14
g15
(dp4774
g29
Nsg60
Nsg30
I01
sg21
Nsg31
Nsg23
Nsg33
Nsg32
Nsg22
Nstp4775
Rp4776
sbg439
sg8
(S'z2022'
p4777
tp4778
Rp4779
(dp4780
g13
g0
(g14
g15
(dp4781
g17
Nsg29
Nsg30
I01
sg20
Nsg21
Nsg31
Nsg23
Nsg33
Nsg24
Nsg32
Nsg47
Nsg34
Nsg22
Nsg27
Nsg19
Nstp4782
Rp4783
sbg439
sg8
(S'z4548'
p4784
tp4785
Rp4786
(dp4787
g13
g0
(g14
g15
(dp4788
g29
Nsg60
Nsg30
I01
sg62
Nsg21
Nsg31
Nsg23
Nsg33
Nsg63
Nsg32
Nsg25
Nsg65
Nsg22
Nsg64
Nsg61
Nstp4789
Rp4790
sbg439
sg8
(S'q10'
p4791
tp4792
Rp4793
(dp4794
g13
g0
(g14
g15
(dp4795
g60
Nsg61
Nsg62
Nsg21
Nsg22
Nsg32
Nsg25
Nsg48
Nsg63
Nsg49
Nsg64
Nsg29
Nsg30
I01
sg31
Nsg23
Nsg33
Nsg65
Nstp4796
Rp4797
sbg439
sg8
(S'z4142'
p4798
tp4799
Rp4800
(dp4801
g13
g0
(g14
g15
(dp4802
g29
Nsg60
Nsg30
I01
sg62
Nsg21
Nsg31
Nsg23
Nsg33
Nsg63
Nsg32
Nsg25
Nsg65
Nsg22
Nsg64
Nsg61
Nstp4803
Rp4804
sbg439
sg8
(S'z8182'
p4805
tp4806
Rp4807
(dp4808
g13
g0
(g14
g15
(dp4809
g17
Nsg19
Nsg20
Nsg21
Nsg22
Nsg24
Nsg47
Nsg48
Nsg27
Nsg49
Nsg29
Nsg30
I01
sg32
Nsg31
Nsg23
Nsg33
Nsg34
Nstp4810
Rp4811
sbg439
sg8
(S'z9092'
p4812
tp4813
Rp4814
(dp4815
g13
g0
(g14
g15
(dp4816
g17
Nsg29
Nsg30
I01
sg20
Nsg21
Nsg31
Nsg23
Nsg33
Nsg24
Nsg32
Nsg47
Nsg34
Nsg22
Nsg27
Nsg19
Nstp4817
Rp4818
sbg439
sg8
(S'z3238'
p4819
tp4820
Rp4821
(dp4822
g13
g0
(g14
g15
(dp4823
g17
Nsg29
Nsg30
I01
sg20
Nsg21
Nsg31
Nsg23
Nsg33
Nsg24
Nsg32
Nsg47
Nsg34
Nsg22
Nsg27
Nsg19
Nstp4824
Rp4825
sbg439
sg8
(S'z5455'
p4826
tp4827
Rp4828
(dp4829
g13
g0
(g14
g15
(dp4830
g60
Nsg18
Nsg61
Nsg62
Nsg21
Nsg22
Nsg63
Nsg25
Nsg48
Nsg64
Nsg49
Nsg29
Nsg30
I01
sg32
Nsg31
Nsg23
Nsg33
Nsg65
Nstp4831
Rp4832
sbg439
sg8
(S'p31'
p4833
tp4834
Rp4835
(dp4836
g13
g0
(g14
g15
(dp4837
g29
Nsg60
Nsg30
I01
sg62
Nsg21
Nsg31
Nsg23
Nsg33
Nsg63
Nsg32
Nsg25
Nsg65
Nsg22
Nsg64
Nsg61
Nstp4838
Rp4839
sbg439
sg8
(S'z6162'
p4840
tp4841
Rp4842
(dp4843
g13
g0
(g14
g15
(dp4844
g60
Nsg61
Nsg62
Nsg21
Nsg22
Nsg63
Nsg25
Nsg48
Nsg64
Nsg49
Nsg29
Nsg30
I01
sg32
Nsg31
Nsg23
Nsg33
Nsg65
Nstp4845
Rp4846
sbg439
sg1559
g3112
sg8
(S'z4751'
p4847
tp4848
Rp4849
(dp4850
g13
g0
(g14
g15
(dp4851
g29
Nsg60
Nsg30
I01
sg62
Nsg21
Nsg31
Nsg23
Nsg33
Nsg63
Nsg32
Nsg25
Nsg65
Nsg22
Nsg64
Nsg61
Nstp4852
Rp4853
sbg439
sg8
(S'z1316'
p4854
tp4855
Rp4856
(dp4857
g13
g0
(g14
g15
(dp4858
g17
Nsg29
Nsg30
I01
sg20
Nsg21
Nsg31
Nsg23
Nsg33
Nsg24
Nsg32
Nsg47
Nsg34
Nsg22
Nsg27
Nsg19
Nstp4859
Rp4860
sbg439
sg8
(S'z5053'
p4861
tp4862
Rp4863
(dp4864
g13
g0
(g14
g15
(dp4865
g29
Nsg60
Nsg30
I01
sg62
Nsg21
Nsg31
Nsg23
Nsg33
Nsg63
Nsg32
Nsg25
Nsg65
Nsg22
Nsg64
Nsg61
Nstp4866
Rp4867
sbg439
sg8
(S'z5859'
p4868
tp4869
Rp4870
(dp4871
g13
g0
(g14
g15
(dp4872
g17
Nsg19
Nsg20
Nsg21
Nsg22
Nsg24
Nsg47
Nsg48
Nsg27
Nsg49
Nsg29
Nsg30
I01
sg32
Nsg31
Nsg23
Nsg33
Nsg34
Nstp4873
Rp4874
sbg439
sg8
(S'p47'
p4875
tp4876
Rp4877
(dp4878
g13
g0
(g14
g15
(dp4879
g29
Nsg60
Nsg30
I01
sg62
Nsg21
Nsg31
Nsg23
Nsg33
Nsg63
Nsg32
Nsg25
Nsg65
Nsg22
Nsg64
Nsg61
Nstp4880
Rp4881
sbg439
sg8
(S'z8487'
p4882
tp4883
Rp4884
(dp4885
g13
g0
(g14
g15
(dp4886
g17
Nsg19
Nsg20
Nsg21
Nsg22
Nsg23
Nsg24
Nsg25
Nsg26
Nsg27
Nsg28
Nsg29
Nsg30
I01
sg31
Nsg32
Nsg33
Nsg34
Nstp4887
Rp4888
sbg439
sg8
(S'z2526'
p4889
tp4890
Rp4891
(dp4892
g13
g0
(g14
g15
(dp4893
g29
Nsg60
Nsg30
I01
sg62
Nsg21
Nsg31
Nsg23
Nsg33
Nsg63
Nsg32
Nsg25
Nsg65
Nsg22
Nsg64
Nsg61
Nstp4894
Rp4895
sbg439
sg8
(S'z3739'
p4896
tp4897
Rp4898
(dp4899
g13
g0
(g14
g15
(dp4900
g17
Nsg29
Nsg30
I01
sg20
Nsg21
Nsg31
Nsg23
Nsg33
Nsg24
Nsg32
Nsg47
Nsg34
Nsg22
Nsg27
Nsg19
Nstp4901
Rp4902
sbg439
sg8
(S'z23'
p4903
tp4904
Rp4905
(dp4906
g13
g0
(g14
g15
(dp4907
g60
Nsg61
Nsg62
Nsg21
Nsg22
Nsg32
Nsg25
Nsg48
Nsg63
Nsg49
Nsg64
Nsg29
Nsg30
I01
sg31
Nsg23
Nsg33
Nsg65
Nstp4908
Rp4909
sbg136
sg8
(S'z6469'
p4910
tp4911
Rp4912
(dp4913
g13
g0
(g14
g15
(dp4914
g17
Nsg29
Nsg30
I01
sg20
Nsg21
Nsg31
Nsg23
Nsg33
Nsg24
Nsg32
Nsg47
Nsg34
Nsg22
Nsg27
Nsg19
Nstp4915
Rp4916
sbg439
sg8
(S'z2732'
p4917
tp4918
Rp4919
(dp4920
g13
g0
(g14
g15
(dp4921
g17
Nsg29
Nsg30
I01
sg20
Nsg21
Nsg31
Nsg23
Nsg33
Nsg24
Nsg32
Nsg47
Nsg34
Nsg22
Nsg27
Nsg19
Nstp4922
Rp4923
sbg439
sg8
(S'z8890'
p4924
tp4925
Rp4926
(dp4927
g13
g0
(g14
g15
(dp4928
g29
Nsg60
Nsg30
I01
sg62
Nsg21
Nsg31
Nsg23
Nsg33
Nsg63
Nsg32
Nsg25
Nsg65
Nsg22
Nsg64
Nsg61
Nstp4929
Rp4930
sbg439
sg8
(S'z1013'
p4931
tp4932
Rp4933
(dp4934
g13
g0
(g14
g15
(dp4935
g60
Nsg61
Nsg62
Nsg21
Nsg22
Nsg63
Nsg25
Nsg48
Nsg64
Nsg49
Nsg29
Nsg30
I01
sg32
Nsg31
Nsg23
Nsg33
Nsg65
Nstp4936
Rp4937
sbg439
sg8
(S'z1418'
p4938
tp4939
Rp4940
(dp4941
g13
g0
(g14
g15
(dp4942
g29
Nsg60
Nsg30
I01
sg21
Nsg31
Nsg23
Nsg33
Nsg32
Nsg22
Nstp4943
Rp4944
sbg439
sg8
(S'z8485'
p4945
tp4946
Rp4947
(dp4948
g13
g0
(g14
g15
(dp4949
g17
Nsg19
Nsg20
Nsg21
Nsg22
Nsg24
Nsg47
Nsg48
Nsg27
Nsg49
Nsg29
Nsg30
I01
sg32
Nsg31
Nsg23
Nsg33
Nsg34
Nstp4950
Rp4951
sbg439
sg8
(S'z8992'
p4952
tp4953
Rp4954
(dp4955
g13
g0
(g14
g15
(dp4956
g17
Nsg29
Nsg30
I01
sg20
Nsg21
Nsg31
Nsg23
Nsg33
Nsg24
Nsg32
Nsg47
Nsg34
Nsg22
Nsg27
Nsg19
Nstp4957
Rp4958
sbg439
sg8
(S'z6874'
p4959
tp4960
Rp4961
(dp4962
g13
g0
(g14
g15
(dp4963
g17
Nsg29
Nsg30
I01
sg20
Nsg21
Nsg31
Nsg23
Nsg33
Nsg24
Nsg32
Nsg47
Nsg34
Nsg22
Nsg27
Nsg19
Nstp4964
Rp4965
sbg439
sg8
(S'p24'
p4966
tp4967
Rp4968
(dp4969
g13
g0
(g14
g15
(dp4970
g29
Nsg60
Nsg30
I01
sg62
Nsg21
Nsg31
Nsg23
Nsg33
Nsg63
Nsg32
Nsg25
Nsg65
Nsg22
Nsg64
Nsg61
Nstp4971
Rp4972
sbg439
sg8
(S'z7071'
p4973
tp4974
Rp4975
(dp4976
g13
g0
(g14
g15
(dp4977
g60
Nsg61
Nsg62
Nsg21
Nsg22
Nsg63
Nsg25
Nsg48
Nsg64
Nsg49
Nsg29
Nsg30
I01
sg32
Nsg31
Nsg23
Nsg33
Nsg65
Nstp4978
Rp4979
sbg439
sg8
(S'z6570'
p4980
tp4981
Rp4982
(dp4983
g13
g0
(g14
g15
(dp4984
g17
Nsg29
Nsg30
I01
sg20
Nsg21
Nsg31
Nsg23
Nsg33
Nsg24
Nsg32
Nsg47
Nsg34
Nsg22
Nsg27
Nsg19
Nstp4985
Rp4986
sbg439
sg8
(S'p33'
p4987
tp4988
Rp4989
(dp4990
g13
g0
(g14
g15
(dp4991
g29
Nsg60
Nsg30
I01
sg62
Nsg21
Nsg31
Nsg23
Nsg33
Nsg63
Nsg32
Nsg25
Nsg65
Nsg22
Nsg64
Nsg61
Nstp4992
Rp4993
sbg439
sg8
(S'z5862'
p4994
tp4995
Rp4996
(dp4997
g13
g0
(g14
g15
(dp4998
g17
Nsg19
Nsg20
Nsg21
Nsg22
Nsg24
Nsg47
Nsg48
Nsg27
Nsg49
Nsg29
Nsg30
I01
sg32
Nsg31
Nsg23
Nsg33
Nsg34
Nstp4999
Rp5000
sbg439
sg8
(S'p23'
p5001
tp5002
Rp5003
(dp5004
g13
g0
(g14
g15
(dp5005
g17
Nsg19
Nsg20
Nsg21
Nsg22
Nsg23
Nsg24
Nsg25
Nsg26
Nsg27
Nsg28
Nsg29
Nsg30
I01
sg31
Nsg32
Nsg33
Nsg34
Nstp5006
Rp5007
sbg439
sg8
(S'z5055'
p5008
tp5009
Rp5010
(dp5011
g13
g0
(g14
g15
(dp5012
g29
Nsg60
Nsg30
I01
sg62
Nsg21
Nsg31
Nsg23
Nsg33
Nsg63
Nsg32
Nsg25
Nsg65
Nsg22
Nsg64
Nsg61
Nstp5013
Rp5014
sbg439
sg8
(S'z8791'
p5015
tp5016
Rp5017
(dp5018
g13
g0
(g14
g15
(dp5019
g17
Nsg29
Nsg30
I01
sg20
Nsg21
Nsg31
Nsg23
Nsg33
Nsg24
Nsg32
Nsg47
Nsg34
Nsg22
Nsg27
Nsg19
Nstp5020
Rp5021
sbg439
sg8
(S'p9'
p5022
tp5023
Rp5024
(dp5025
g13
g0
(g14
g15
(dp5026
g60
Nsg61
Nsg62
Nsg21
Nsg22
Nsg32
Nsg25
Nsg48
Nsg63
Nsg49
Nsg64
Nsg29
Nsg30
I01
sg31
Nsg23
Nsg33
Nsg65
Nstp5027
Rp5028
sbg439
sg8
(S'z5155'
p5029
tp5030
Rp5031
(dp5032
g13
g0
(g14
g15
(dp5033
g29
Nsg60
Nsg30
I01
sg62
Nsg21
Nsg31
Nsg23
Nsg33
Nsg63
Nsg32
Nsg25
Nsg65
Nsg22
Nsg64
Nsg61
Nstp5034
Rp5035
sbg439
sg8
(S'z2933'
p5036
tp5037
Rp5038
(dp5039
g13
g0
(g14
g15
(dp5040
g29
Nsg60
Nsg30
I01
sg62
Nsg21
Nsg31
Nsg23
Nsg33
Nsg63
Nsg32
Nsg25
Nsg65
Nsg22
Nsg64
Nsg61
Nstp5041
Rp5042
sbg439
sg8
(S'z7779'
p5043
tp5044
Rp5045
(dp5046
g13
g0
(g14
g15
(dp5047
g17
Nsg29
Nsg30
I01
sg20
Nsg21
Nsg31
Nsg23
Nsg33
Nsg24
Nsg32
Nsg47
Nsg34
Nsg22
Nsg27
Nsg19
Nstp5048
Rp5049
sbg439
sg8
(S'z1519'
p5050
tp5051
Rp5052
(dp5053
g13
g0
(g14
g15
(dp5054
g29
Nsg60
Nsg30
I01
sg21
Nsg31
Nsg23
Nsg33
Nsg32
Nsg22
Nstp5055
Rp5056
sbg439
sg8
(S'q44'
p5057
tp5058
Rp5059
(dp5060
g13
g0
(g14
g15
(dp5061
g60
Nsg61
Nsg62
Nsg21
Nsg22
Nsg32
Nsg48
Nsg63
Nsg49
Nsg64
Nsg29
Nsg30
I01
sg31
Nsg23
Nsg33
Nsg65
Nstp5062
Rp5063
sbg439
sg8
(S'z6669'
p5064
tp5065
Rp5066
(dp5067
g13
g0
(g14
g15
(dp5068
g29
Nsg60
Nsg30
I01
sg62
Nsg21
Nsg31
Nsg23
Nsg33
Nsg63
Nsg32
Nsg25
Nsg65
Nsg22
Nsg64
Nsg61
Nstp5069
Rp5070
sbg439
sg8
(S'p13'
p5071
tp5072
Rp5073
(dp5074
g13
g0
(g14
g15
(dp5075
g29
Nsg60
Nsg30
I01
sg62
Nsg21
Nsg31
Nsg23
Nsg33
Nsg63
Nsg32
Nsg25
Nsg65
Nsg22
Nsg64
Nsg61
Nstp5076
Rp5077
sbg439
sg8
(S'z3439'
p5078
tp5079
Rp5080
(dp5081
g13
g0
(g14
g15
(dp5082
g17
Nsg29
Nsg30
I01
sg20
Nsg21
Nsg31
Nsg23
Nsg33
Nsg24
Nsg32
Nsg47
Nsg34
Nsg22
Nsg27
Nsg19
Nstp5083
Rp5084
sbg439
sg8
(S'z5659'
p5085
tp5086
Rp5087
(dp5088
g13
g0
(g14
g15
(dp5089
g29
Nsg60
Nsg30
I01
sg62
Nsg21
Nsg31
Nsg23
Nsg33
Nsg63
Nsg32
Nsg25
Nsg65
Nsg22
Nsg64
Nsg61
Nstp5090
Rp5091
sbg439
sg8
(S'z4449'
p5092
tp5093
Rp5094
(dp5095
g13
g0
(g14
g15
(dp5096
g29
Nsg60
Nsg30
I01
sg62
Nsg21
Nsg31
Nsg23
Nsg33
Nsg63
Nsg32
Nsg25
Nsg65
Nsg22
Nsg64
Nsg61
Nstp5097
Rp5098
sbg439
sg8
(S'z6368'
p5099
tp5100
Rp5101
(dp5102
g13
g0
(g14
g15
(dp5103
g17
Nsg29
Nsg30
I01
sg20
Nsg21
Nsg31
Nsg23
Nsg33
Nsg24
Nsg32
Nsg47
Nsg34
Nsg22
Nsg27
Nsg19
Nstp5104
Rp5105
sbg439
sg8
(S'z3235'
p5106
tp5107
Rp5108
(dp5109
g13
g0
(g14
g15
(dp5110
g60
Nsg61
Nsg62
Nsg21
Nsg22
Nsg63
Nsg25
Nsg48
Nsg64
Nsg49
Nsg29
Nsg30
I01
sg32
Nsg31
Nsg23
Nsg33
Nsg65
Nstp5111
Rp5112
sbg439
sg8
(S'z8991'
p5113
tp5114
Rp5115
(dp5116
g13
g0
(g14
g15
(dp5117
g17
Nsg29
Nsg30
I01
sg20
Nsg21
Nsg31
Nsg23
Nsg33
Nsg24
Nsg32
Nsg47
Nsg34
Nsg22
Nsg27
Nsg19
Nstp5118
Rp5119
sbg439
sg8
(S'z4245'
p5120
tp5121
Rp5122
(dp5123
g13
g0
(g14
g15
(dp5124
g17
Nsg29
Nsg30
I01
sg20
Nsg21
Nsg31
Nsg23
Nsg33
Nsg24
Nsg32
Nsg47
Nsg34
Nsg22
Nsg27
Nsg19
Nstp5125
Rp5126
sbg439
sg8
(S'z3035'
p5127
tp5128
Rp5129
(dp5130
g13
g0
(g14
g15
(dp5131
g17
Nsg19
Nsg20
Nsg21
Nsg22
Nsg23
Nsg24
Nsg26
Nsg27
Nsg28
Nsg29
Nsg30
I01
sg31
Nsg32
Nsg33
Nsg34
Nstp5132
Rp5133
sbg439
sg8
(S'z5558'
p5134
tp5135
Rp5136
(dp5137
g13
g0
(g14
g15
(dp5138
g17
Nsg19
Nsg20
Nsg21
Nsg22
Nsg23
Nsg24
Nsg25
Nsg26
Nsg27
Nsg28
Nsg29
Nsg30
I01
sg31
Nsg32
Nsg33
Nsg34
Nstp5139
Rp5140
sbg439
sg8
(S'q30'
p5141
tp5142
Rp5143
(dp5144
g13
g0
(g14
g15
(dp5145
g29
Nsg60
Nsg30
I01
sg21
Nsg31
Nsg23
Nsg33
Nsg32
Nsg22
Nstp5146
Rp5147
sbg439
sg8
(S'z5964'
p5148
tp5149
Rp5150
(dp5151
g13
g0
(g14
g15
(dp5152
g29
Nsg60
Nsg30
I01
sg62
Nsg21
Nsg31
Nsg23
Nsg33
Nsg63
Nsg32
Nsg25
Nsg65
Nsg22
Nsg64
Nsg61
Nstp5153
Rp5154
sbg439
sg8
(S'z4652'
p5155
tp5156
Rp5157
(dp5158
g13
g0
(g14
g15
(dp5159
g17
Nsg29
Nsg30
I01
sg20
Nsg21
Nsg31
Nsg23
Nsg33
Nsg24
Nsg32
Nsg47
Nsg34
Nsg22
Nsg27
Nsg19
Nstp5160
Rp5161
sbg439
sg8
(S'z5157'
p5162
tp5163
Rp5164
(dp5165
g13
g0
(g14
g15
(dp5166
g17
Nsg29
Nsg30
I01
sg20
Nsg21
Nsg31
Nsg23
Nsg33
Nsg24
Nsg32
Nsg47
Nsg34
Nsg22
Nsg27
Nsg19
Nstp5167
Rp5168
sbg439
sg8
(S'z2931'
p5169
tp5170
Rp5171
(dp5172
g13
g0
(g14
g15
(dp5173
g60
Nsg61
Nsg62
Nsg21
Nsg22
Nsg63
Nsg25
Nsg48
Nsg64
Nsg49
Nsg29
Nsg30
I01
sg32
Nsg31
Nsg23
Nsg33
Nsg65
Nstp5174
Rp5175
sbg439
sg8
(S'z8993'
p5176
tp5177
Rp5178
(dp5179
g13
g0
(g14
g15
(dp5180
g29
Nsg60
Nsg30
I01
sg21
Nsg31
Nsg23
Nsg33
Nsg32
Nsg22
Nstp5181
Rp5182
sbg439
sg8
(S'q20'
p5183
tp5184
Rp5185
(dp5186
g13
g0
(g14
g15
(dp5187
g29
Nsg60
Nsg30
I01
sg62
Nsg21
Nsg31
Nsg23
Nsg33
Nsg63
Nsg32
Nsg25
Nsg65
Nsg22
Nsg64
Nsg61
Nstp5188
Rp5189
sbg439
sg8
(S'p11'
p5190
tp5191
Rp5192
(dp5193
g13
g0
(g14
g15
(dp5194
g29
Nsg17
Nsg30
I01
sg20
Nsg21
Nsg31
Nsg23
Nsg33
Nsg24
Nsg32
Nsg47
Nsg34
Nsg22
Nsg27
Nsg19
Nstp5195
Rp5196
sbg439
sg8
(S'z4853'
p5197
tp5198
Rp5199
(dp5200
g13
g0
(g14
g15
(dp5201
g29
Nsg60
Nsg30
I01
sg62
Nsg21
Nsg31
Nsg23
Nsg33
Nsg63
Nsg32
Nsg25
Nsg65
Nsg22
Nsg64
Nsg61
Nstp5202
Rp5203
sbg439
sg8
(S'z5457'
p5204
tp5205
Rp5206
(dp5207
g13
g0
(g14
g15
(dp5208
g60
Nsg61
Nsg62
Nsg21
Nsg22
Nsg63
Nsg25
Nsg48
Nsg64
Nsg49
Nsg29
Nsg30
I01
sg32
Nsg31
Nsg23
Nsg33
Nsg65
Nstp5209
Rp5210
sbg439
sg8
(S'z4143'
p5211
tp5212
Rp5213
(dp5214
g13
g0
(g14
g15
(dp5215
g29
Nsg60
Nsg30
I01
sg62
Nsg21
Nsg31
Nsg23
Nsg33
Nsg63
Nsg32
Nsg25
Nsg65
Nsg22
Nsg64
Nsg61
Nstp5216
Rp5217
sbg439
sg8
(S'z4852'
p5218
tp5219
Rp5220
(dp5221
g13
g0
(g14
g15
(dp5222
g60
Nsg61
Nsg62
Nsg21
Nsg22
Nsg63
Nsg25
Nsg48
Nsg64
Nsg49
Nsg29
Nsg30
I01
sg32
Nsg31
Nsg23
Nsg33
Nsg65
Nstp5223
Rp5224
sbg439
sg8
(S'z9495'
p5225
tp5226
Rp5227
(dp5228
g13
g0
(g14
g15
(dp5229
g17
Nsg29
Nsg30
I01
sg20
Nsg21
Nsg31
Nsg23
Nsg33
Nsg24
Nsg32
Nsg47
Nsg34
Nsg22
Nsg27
Nsg19
Nstp5230
Rp5231
sbg439
sg8
(S'z7174'
p5232
tp5233
Rp5234
(dp5235
g13
g0
(g14
g15
(dp5236
g29
Nsg60
Nsg30
I01
sg62
Nsg21
Nsg31
Nsg23
Nsg33
Nsg63
Nsg32
Nsg25
Nsg65
Nsg22
Nsg64
Nsg61
Nstp5237
Rp5238
sbg439
sg8
(S'z1216'
p5239
tp5240
Rp5241
(dp5242
g13
g0
(g14
g15
(dp5243
g29
Nsg60
Nsg30
I01
sg21
Nsg31
Nsg23
Nsg33
Nsg32
Nsg22
Nstp5244
Rp5245
sbg439
sg8
(S'z4753'
p5246
tp5247
Rp5248
(dp5249
g13
g0
(g14
g15
(dp5250
g17
Nsg29
Nsg30
I01
sg20
Nsg21
Nsg31
Nsg23
Nsg33
Nsg24
Nsg32
Nsg47
Nsg34
Nsg22
Nsg27
Nsg19
Nstp5251
Rp5252
sbg439
sg8
(S'z2627'
p5253
tp5254
Rp5255
(dp5256
g13
g0
(g14
g15
(dp5257
g17
Nsg29
Nsg19
Nsg20
Nsg21
Nsg31
Nsg23
Nsg33
Nsg24
Nsg32
Nsg47
Nsg34
Nsg22
Nsg27
Nsg30
I01
stp5258
Rp5259
sbg439
sg8
(S'z3136'
p5260
tp5261
Rp5262
(dp5263
g13
g0
(g14
g15
(dp5264
g29
Nsg60
Nsg30
I01
sg21
Nsg31
Nsg23
Nsg33
Nsg32
Nsg22
Nstp5265
Rp5266
sbg439
sg8
(S'z6974'
p5267
tp5268
Rp5269
(dp5270
g13
g0
(g14
g15
(dp5271
g17
Nsg29
Nsg30
I01
sg20
Nsg21
Nsg31
Nsg23
Nsg33
Nsg24
Nsg32
Nsg47
Nsg34
Nsg22
Nsg27
Nsg19
Nstp5272
Rp5273
sbg439
sg8
(S'z8586'
p5274
tp5275
Rp5276
(dp5277
g13
g0
(g14
g15
(dp5278
g17
Nsg19
Nsg20
Nsg21
Nsg22
Nsg23
Nsg24
Nsg25
Nsg26
Nsg27
Nsg28
Nsg29
Nsg30
I01
sg31
Nsg32
Nsg33
Nsg34
Nstp5279
Rp5280
sbg439
sg8
(S'z45'
p5281
tp5282
Rp5283
(dp5284
g13
g0
(g14
g15
(dp5285
g17
Nsg19
Nsg20
Nsg21
Nsg22
Nsg23
Nsg24
Nsg25
Nsg26
Nsg27
Nsg28
Nsg29
Nsg30
I01
sg31
Nsg32
Nsg33
Nsg34
Nstp5286
Rp5287
sbg136
sg8
(S'z5052'
p5288
tp5289
Rp5290
(dp5291
g13
g0
(g14
g15
(dp5292
g29
Nsg60
Nsg30
I01
sg62
Nsg21
Nsg31
Nsg23
Nsg33
Nsg63
Nsg32
Nsg25
Nsg65
Nsg22
Nsg64
Nsg61
Nstp5293
Rp5294
sbg439
sg8
(S'z9296'
p5295
tp5296
Rp5297
(dp5298
g13
g0
(g14
g15
(dp5299
g17
Nsg19
Nsg20
Nsg21
Nsg22
Nsg23
Nsg32
Nsg47
Nsg26
Nsg27
Nsg28
Nsg29
Nsg30
I01
sg31
Nsg24
Nsg33
Nsg34
Nstp5300
Rp5301
sbg439
sg8
(S'z4046'
p5302
tp5303
Rp5304
(dp5305
g13
g0
(g14
g15
(dp5306
g17
Nsg29
Nsg19
Nsg20
Nsg21
Nsg31
Nsg23
Nsg33
Nsg24
Nsg32
Nsg47
Nsg34
Nsg22
Nsg27
Nsg30
I01
stp5307
Rp5308
sbg439
sg8
(S'z7475'
p5309
tp5310
Rp5311
(dp5312
g13
g0
(g14
g15
(dp5313
g29
Nsg60
Nsg30
I01
sg62
Nsg21
Nsg31
Nsg23
Nsg33
Nsg63
Nsg32
Nsg25
Nsg65
Nsg22
Nsg64
Nsg61
Nstp5314
Rp5315
sbg439
sg8
(S'z5357'
p5316
tp5317
Rp5318
(dp5319
g13
g0
(g14
g15
(dp5320
g17
Nsg29
Nsg30
I01
sg20
Nsg21
Nsg31
Nsg23
Nsg33
Nsg24
Nsg32
Nsg47
Nsg34
Nsg22
Nsg27
Nsg19
Nstp5321
Rp5322
sbg439
sg8
(S'z6672'
p5323
tp5324
Rp5325
(dp5326
g13
g0
(g14
g15
(dp5327
g17
Nsg29
Nsg30
I01
sg20
Nsg21
Nsg31
Nsg23
Nsg33
Nsg24
Nsg32
Nsg47
Nsg34
Nsg22
Nsg27
Nsg19
Nstp5328
Rp5329
sbg439
sg8
(S'p17'
p5330
tp5331
Rp5332
(dp5333
g13
g0
(g14
g15
(dp5334
g29
Nsg60
Nsg30
I01
sg62
Nsg21
Nsg31
Nsg23
Nsg33
Nsg63
Nsg32
Nsg25
Nsg65
Nsg22
Nsg64
Nsg61
Nstp5335
Rp5336
sbg439
sg8
(S'z7983'
p5337
tp5338
Rp5339
(dp5340
g13
g0
(g14
g15
(dp5341
g17
Nsg19
Nsg20
Nsg21
Nsg22
Nsg23
Nsg32
Nsg47
Nsg26
Nsg27
Nsg28
Nsg29
Nsg30
I01
sg31
Nsg24
Nsg33
Nsg34
Nstp5342
Rp5343
sbg439
sg8
(S'z4041'
p5344
tp5345
Rp5346
(dp5347
g13
g0
(g14
g15
(dp5348
g17
Nsg19
Nsg20
Nsg21
Nsg22
Nsg24
Nsg47
Nsg48
Nsg27
Nsg49
Nsg29
Nsg30
I01
sg32
Nsg31
Nsg23
Nsg33
Nsg34
Nstp5349
Rp5350
sbg439
sg8
(S'z7375'
p5351
tp5352
Rp5353
(dp5354
g13
g0
(g14
g15
(dp5355
g60
Nsg61
Nsg62
Nsg21
Nsg22
Nsg63
Nsg25
Nsg48
Nsg64
Nsg49
Nsg29
Nsg30
I01
sg32
Nsg31
Nsg23
Nsg33
Nsg65
Nstp5356
Rp5357
sbg439
sg8
(S'z3134'
p5358
tp5359
Rp5360
(dp5361
g13
g0
(g14
g15
(dp5362
g29
Nsg60
Nsg30
I01
sg62
Nsg21
Nsg31
Nsg23
Nsg33
Nsg63
Nsg32
Nsg25
Nsg65
Nsg22
Nsg64
Nsg61
Nstp5363
Rp5364
sbg439
sg8
(S'z7073'
p5365
tp5366
Rp5367
(dp5368
g13
g0
(g14
g15
(dp5369
g29
Nsg60
Nsg30
I01
sg62
Nsg21
Nsg31
Nsg23
Nsg33
Nsg63
Nsg32
Nsg25
Nsg65
Nsg22
Nsg64
Nsg61
Nstp5370
Rp5371
sbg439
sg8
(S'z8891'
p5372
tp5373
Rp5374
(dp5375
g13
g0
(g14
g15
(dp5376
g29
Nsg60
Nsg30
I01
sg62
Nsg21
Nsg31
Nsg23
Nsg33
Nsg63
Nsg32
Nsg25
Nsg65
Nsg22
Nsg64
Nsg61
Nstp5377
Rp5378
sbg439
sg8
(S'z7883'
p5379
tp5380
Rp5381
(dp5382
g13
g0
(g14
g15
(dp5383
g17
Nsg29
Nsg19
Nsg20
Nsg21
Nsg31
Nsg23
Nsg33
Nsg24
Nsg32
Nsg47
Nsg34
Nsg22
Nsg27
Nsg30
I01
stp5384
Rp5385
sbg439
sg8
(S'z7374'
p5386
tp5387
Rp5388
(dp5389
g13
g0
(g14
g15
(dp5390
g17
Nsg29
Nsg19
Nsg20
Nsg21
Nsg31
Nsg23
Nsg33
Nsg24
Nsg32
Nsg47
Nsg34
Nsg22
Nsg27
Nsg30
I01
stp5391
Rp5392
sbg439
sg8
(S'z2024'
p5393
tp5394
Rp5395
(dp5396
g13
g0
(g14
g15
(dp5397
g60
Nsg61
Nsg62
Nsg21
Nsg22
Nsg63
Nsg25
Nsg48
Nsg64
Nsg49
Nsg29
Nsg30
I01
sg32
Nsg31
Nsg23
Nsg33
Nsg65
Nstp5398
Rp5399
sbg439
sg8
(S'p21'
p5400
tp5401
Rp5402
(dp5403
g13
g0
(g14
g15
(dp5404
g29
Nsg60
Nsg30
I01
sg62
Nsg21
Nsg31
Nsg23
Nsg33
Nsg63
Nsg32
Nsg25
Nsg65
Nsg22
Nsg64
Nsg61
Nstp5405
Rp5406
sbg439
sg8
(S'q16'
p5407
tp5408
Rp5409
(dp5410
g13
g0
(g14
g15
(dp5411
g60
Nsg61
Nsg62
Nsg21
Nsg22
Nsg63
Nsg25
Nsg48
Nsg64
Nsg49
Nsg29
Nsg30
I01
sg32
Nsg31
Nsg23
Nsg33
Nsg65
Nstp5412
Rp5413
sbg439
sg8
(S'z7176'
p5414
tp5415
Rp5416
(dp5417
g13
g0
(g14
g15
(dp5418
g60
Nsg61
Nsg62
Nsg21
Nsg22
Nsg32
Nsg48
Nsg63
Nsg49
Nsg64
Nsg29
Nsg30
I01
sg31
Nsg23
Nsg33
Nsg65
Nstp5419
Rp5420
sbg439
sg8
(S'z2025'
p5421
tp5422
Rp5423
(dp5424
g13
g0
(g14
g15
(dp5425
g17
Nsg29
Nsg19
Nsg20
Nsg21
Nsg31
Nsg23
Nsg33
Nsg24
Nsg32
Nsg47
Nsg34
Nsg22
Nsg27
Nsg30
I01
stp5426
Rp5427
sbg439
sg8
(S'p36'
p5428
tp5429
Rp5430
(dp5431
g13
g0
(g14
g15
(dp5432
g29
Nsg60
Nsg30
I01
sg62
Nsg21
Nsg31
Nsg23
Nsg33
Nsg63
Nsg32
Nsg25
Nsg65
Nsg22
Nsg64
Nsg61
Nstp5433
Rp5434
sbg439
sg8
(S'z6263'
p5435
tp5436
Rp5437
(dp5438
g13
g0
(g14
g15
(dp5439
g60
Nsg61
Nsg62
Nsg21
Nsg22
Nsg63
Nsg25
Nsg48
Nsg64
Nsg49
Nsg29
Nsg30
I01
sg32
Nsg31
Nsg23
Nsg33
Nsg65
Nstp5440
Rp5441
sbg439
sg8
(S'z6972'
p5442
tp5443
Rp5444
(dp5445
g13
g0
(g14
g15
(dp5446
g17
Nsg19
Nsg20
Nsg21
Nsg22
Nsg24
Nsg47
Nsg48
Nsg27
Nsg49
Nsg29
Nsg30
I01
sg32
Nsg31
Nsg23
Nsg33
Nsg34
Nstp5447
Rp5448
sbg439
sg8
(S'z3942'
p5449
tp5450
Rp5451
(dp5452
g13
g0
(g14
g15
(dp5453
g60
Nsg61
Nsg62
Nsg21
Nsg22
Nsg63
Nsg25
Nsg48
Nsg64
Nsg49
Nsg29
Nsg30
I01
sg32
Nsg31
Nsg23
Nsg33
Nsg65
Nstp5454
Rp5455
sbg439
sg8
(S'z8184'
p5456
tp5457
Rp5458
(dp5459
g13
g0
(g14
g15
(dp5460
g17
Nsg29
Nsg30
I01
sg20
Nsg21
Nsg31
Nsg23
Nsg33
Nsg24
Nsg32
Nsg47
Nsg34
Nsg22
Nsg27
Nsg19
Nstp5461
Rp5462
sbg439
sg8
(S'z9094'
p5463
tp5464
Rp5465
(dp5466
g13
g0
(g14
g15
(dp5467
g29
Nsg60
Nsg30
I01
sg21
Nsg31
Nsg23
Nsg33
Nsg32
Nsg22
Nstp5468
Rp5469
sbg439
sg8
(S'z2125'
p5470
tp5471
Rp5472
(dp5473
g13
g0
(g14
g15
(dp5474
g17
Nsg29
Nsg19
Nsg20
Nsg21
Nsg31
Nsg23
Nsg33
Nsg24
Nsg32
Nsg47
Nsg34
Nsg22
Nsg27
Nsg30
I01
stp5475
Rp5476
sbg439
sg8
(S'z3639'
p5477
tp5478
Rp5479
(dp5480
g13
g0
(g14
g15
(dp5481
g17
Nsg19
Nsg20
Nsg21
Nsg22
Nsg24
Nsg47
Nsg48
Nsg27
Nsg49
Nsg29
Nsg30
I01
sg32
Nsg31
Nsg23
Nsg33
Nsg34
Nstp5482
Rp5483
sbg439
sg8
(S'z7880'
p5484
tp5485
Rp5486
(dp5487
g13
g0
(g14
g15
(dp5488
g17
Nsg29
Nsg30
I01
sg20
Nsg21
Nsg31
Nsg23
Nsg33
Nsg24
Nsg32
Nsg47
Nsg34
Nsg22
Nsg27
Nsg19
Nstp5489
Rp5490
sbg439
sg8
(S'z6667'
p5491
tp5492
Rp5493
(dp5494
g13
g0
(g14
g15
(dp5495
g17
Nsg19
Nsg20
Nsg21
Nsg22
Nsg24
Nsg47
Nsg48
Nsg27
Nsg49
Nsg29
Nsg30
I01
sg32
Nsg31
Nsg23
Nsg33
Nsg34
Nstp5496
Rp5497
sbg439
sg8
(S'z4246'
p5498
tp5499
Rp5500
(dp5501
g13
g0
(g14
g15
(dp5502
g29
Nsg60
Nsg30
I01
sg62
Nsg21
Nsg31
Nsg23
Nsg33
Nsg63
Nsg32
Nsg25
Nsg65
Nsg22
Nsg64
Nsg61
Nstp5503
Rp5504
sbg439
sg8
(S'z9597'
p5505
tp5506
Rp5507
(dp5508
g13
g0
(g14
g15
(dp5509
g60
Nsg61
Nsg62
Nsg21
Nsg22
Nsg63
Nsg25
Nsg48
Nsg64
Nsg49
Nsg29
Nsg30
I01
sg32
Nsg31
Nsg23
Nsg33
Nsg65
Nstp5510
Rp5511
sbg439
sg8
(S'z2325'
p5512
tp5513
Rp5514
(dp5515
g13
g0
(g14
g15
(dp5516
g29
Nsg60
Nsg30
I01
sg62
Nsg21
Nsg31
Nsg23
Nsg33
Nsg63
Nsg32
Nsg25
Nsg65
Nsg22
Nsg64
Nsg61
Nstp5517
Rp5518
sbg439
sg8
(S'q27'
p5519
tp5520
Rp5521
(dp5522
g13
g0
(g14
g15
(dp5523
g60
Nsg61
Nsg62
Nsg21
Nsg22
Nsg32
Nsg48
Nsg63
Nsg49
Nsg64
Nsg29
Nsg30
I01
sg31
Nsg23
Nsg33
Nsg65
Nstp5524
Rp5525
sbg439
sg8
(S'p34'
p5526
tp5527
Rp5528
(dp5529
g13
g0
(g14
g15
(dp5530
g29
Nsg60
Nsg30
I01
sg62
Nsg21
Nsg31
Nsg23
Nsg33
Nsg63
Nsg32
Nsg25
Nsg65
Nsg22
Nsg64
Nsg61
Nstp5531
Rp5532
sbg439
sg8
(S'z1314'
p5533
tp5534
Rp5535
(dp5536
g13
g0
(g14
g15
(dp5537
g17
Nsg19
Nsg20
Nsg21
Nsg22
Nsg24
Nsg47
Nsg48
Nsg27
Nsg49
Nsg29
Nsg30
I01
sg32
Nsg31
Nsg23
Nsg33
Nsg34
Nstp5538
Rp5539
sbg439
sg8
(S'z8386'
p5540
tp5541
Rp5542
(dp5543
g13
g0
(g14
g15
(dp5544
g29
Nsg60
Nsg30
I01
sg62
Nsg21
Nsg31
Nsg23
Nsg33
Nsg63
Nsg32
Nsg25
Nsg65
Nsg22
Nsg64
Nsg61
Nstp5545
Rp5546
sbg439
sg8
(S'z2324'
p5547
tp5548
Rp5549
(dp5550
g13
g0
(g14
g15
(dp5551
g29
Nsg60
Nsg30
I01
sg62
Nsg21
Nsg31
Nsg23
Nsg33
Nsg63
Nsg32
Nsg25
Nsg65
Nsg22
Nsg64
Nsg61
Nstp5552
Rp5553
sbg439
sg8
(S'z8285'
p5554
tp5555
Rp5556
(dp5557
g13
g0
(g14
g15
(dp5558
g29
Nsg60
Nsg30
I01
sg62
Nsg21
Nsg31
Nsg23
Nsg33
Nsg63
Nsg32
Nsg25
Nsg65
Nsg22
Nsg64
Nsg61
Nstp5559
Rp5560
sbg439
sg8
(S'p15'
p5561
tp5562
Rp5563
(dp5564
g13
g0
(g14
g15
(dp5565
g29
Nsg60
Nsg30
I01
sg62
Nsg21
Nsg31
Nsg23
Nsg33
Nsg63
Nsg32
Nsg25
Nsg65
Nsg22
Nsg64
Nsg61
Nstp5566
Rp5567
sbg439
sg8
(S'z2728'
p5568
tp5569
Rp5570
(dp5571
g13
g0
(g14
g15
(dp5572
g17
Nsg19
Nsg20
Nsg21
Nsg22
Nsg24
Nsg47
Nsg48
Nsg27
Nsg49
Nsg29
Nsg30
I01
sg32
Nsg31
Nsg23
Nsg33
Nsg34
Nstp5573
Rp5574
sbg439
sg8
(S'z2528'
p5575
tp5576
Rp5577
(dp5578
g13
g0
(g14
g15
(dp5579
g29
Nsg60
Nsg30
I01
sg62
Nsg21
Nsg31
Nsg23
Nsg33
Nsg63
Nsg32
Nsg25
Nsg65
Nsg22
Nsg64
Nsg61
Nstp5580
Rp5581
sbg439
sg8
(S'z2932'
p5582
tp5583
Rp5584
(dp5585
g13
g0
(g14
g15
(dp5586
g17
Nsg29
Nsg30
I01
sg20
Nsg21
Nsg31
Nsg23
Nsg33
Nsg24
Nsg32
Nsg47
Nsg34
Nsg22
Nsg27
Nsg19
Nstp5587
Rp5588
sbg439
sg8
(S'z3640'
p5589
tp5590
Rp5591
(dp5592
g13
g0
(g14
g15
(dp5593
g29
Nsg60
Nsg30
I01
sg62
Nsg21
Nsg31
Nsg23
Nsg33
Nsg63
Nsg32
Nsg25
Nsg65
Nsg22
Nsg64
Nsg61
Nstp5594
Rp5595
sbg439
sg8
(S'p28'
p5596
tp5597
Rp5598
(dp5599
g13
g0
(g14
g15
(dp5600
g29
Nsg60
Nsg30
I01
sg62
Nsg21
Nsg31
Nsg23
Nsg33
Nsg63
Nsg32
Nsg25
Nsg65
Nsg22
Nsg64
Nsg61
Nstp5601
Rp5602
sbg439
sg8
(S'z7578'
p5603
tp5604
Rp5605
(dp5606
g13
g0
(g14
g15
(dp5607
g29
Nsg60
Nsg30
I01
sg62
Nsg21
Nsg31
Nsg23
Nsg33
Nsg63
Nsg32
Nsg25
Nsg65
Nsg22
Nsg64
Nsg61
Nstp5608
Rp5609
sbg439
sg8
(S'z35'
p5610
tp5611
Rp5612
(dp5613
g13
g0
(g14
g15
(dp5614
g17
Nsg19
Nsg20
Nsg21
Nsg22
Nsg24
Nsg47
Nsg48
Nsg27
Nsg49
Nsg29
Nsg30
I01
sg32
Nsg31
Nsg23
Nsg33
Nsg34
Nstp5615
Rp5616
sbg439
sg8
(S'z5662'
p5617
tp5618
Rp5619
(dp5620
g13
g0
(g14
g15
(dp5621
g17
Nsg29
Nsg19
Nsg20
Nsg21
Nsg31
Nsg23
Nsg33
Nsg24
Nsg32
Nsg47
Nsg34
Nsg22
Nsg27
Nsg30
I01
stp5622
Rp5623
sbg439
sg8
(S'z34'
p5624
tp5625
Rp5626
(dp5627
g13
g0
(g14
g15
(dp5628
g17
Nsg19
Nsg20
Nsg21
Nsg22
Nsg24
Nsg47
Nsg48
Nsg27
Nsg49
Nsg29
Nsg30
I01
sg32
Nsg31
Nsg23
Nsg33
Nsg34
Nstp5629
Rp5630
sbg136
sg8
(S'p27'
p5631
tp5632
Rp5633
(dp5634
g13
g0
(g14
g15
(dp5635
g29
Nsg60
Nsg30
I01
sg62
Nsg21
Nsg31
Nsg23
Nsg33
Nsg63
Nsg32
Nsg25
Nsg65
Nsg22
Nsg64
Nsg61
Nstp5636
Rp5637
sbg439
sg8
(S'q14'
p5638
tp5639
Rp5640
(dp5641
g13
g0
(g14
g15
(dp5642
g17
Nsg19
Nsg20
Nsg21
Nsg22
Nsg23
Nsg24
Nsg25
Nsg26
Nsg27
Nsg28
Nsg29
Nsg30
I01
sg31
Nsg32
Nsg33
Nsg34
Nstp5643
Rp5644
sbg439
sI01
tp5645
b.