ccopy_reg
_reconstructor
p0
(csympy_solver
EquationSolver
p1
c__builtin__
object
p2
Ntp3
Rp4
((lp5
csympy.core.relational
Equality
p6
(csympy.core.add
Add
p7
(csympy.core.mul
Mul
p8
(csympy.core.numbers
Integer
p9
(I2
tp10
Rp11
(dp12
bcsympy.core.symbol
Symbol
p13
(S'q5'
p14
tp15
Rp16
(dp17
S'_assumptions'
p18
g0
(csympy.core.assumptions
StdFactKB
p19
c__builtin__
dict
p20
(dp21
S'real'
p22
NsS'polar'
p23
NsS'irrational'
p24
NsS'antihermitian'
p25
NsS'nonpositive'
p26
NsS'unbounded'
p27
NsS'zero'
p28
NsS'bounded'
p29
NsS'integer'
p30
NsS'hermitian'
p31
NsS'odd'
p32
NsS'imaginary'
p33
NsS'even'
p34
NsS'commutative'
p35
I01
sS'positive'
p36
NsS'negative'
p37
NsS'nonnegative'
p38
NsS'rational'
p39
Nstp40
Rp41
sbtp42
Rp43
(dp44
bg13
(S'z79'
p45
tp46
Rp47
(dp48
g18
g0
(g19
g20
(dp49
S'real'
p50
NsS'irrational'
p51
NsS'antihermitian'
p52
Nsg26
Nsg27
NsS'hermitian'
p53
NsS'bounded'
p54
Nsg30
NsS'imaginary'
p55
Nsg32
Nsg34
Nsg35
I01
sg28
Nsg36
Nsg37
Nsg38
NsS'rational'
p56
Nstp57
Rp58
sbg13
(S'q7'
p59
tp60
Rp61
(dp62
g18
g0
(g19
g20
(dp63
g22
Nsg23
Nsg24
Nsg25
Nsg26
Nsg27
Nsg28
Nsg29
Nsg30
Nsg31
Nsg32
Nsg33
Nsg34
Nsg35
I01
sg36
Nsg37
Nsg38
Nsg39
Nstp64
Rp65
sbg13
(S'z89'
p66
tp67
Rp68
(dp69
g18
g0
(g19
g20
(dp70
g50
Nsg34
Nsg35
I01
sg52
Nsg26
Nsg36
Nsg37
Nsg38
Nsg53
Nsg28
Nsg54
Nsg56
Nsg27
Nsg55
Nsg51
Nstp71
Rp72
sbg8
(g13
(S'p7'
p73
tp74
Rp75
(dp76
g18
g0
(g19
g20
(dp77
g22
Nsg23
Nsg24
Nsg25
Nsg26
Nsg27
Nsg31
Nsg29
Nsg33
Nsg34
Nsg35
I01
sg28
Nsg36
Nsg37
Nsg38
Nsg39
Nstp78
Rp79
sbg13
(S'q2'
p80
tp81
Rp82
(dp83
g18
g0
(g19
g20
(dp84
g22
Nsg24
Nsg25
Nsg26
Nsg27
Nsg28
Nsg29
Nsg30
Nsg31
Nsg32
Nsg33
Nsg34
Nsg35
I01
sg36
Nsg37
Nsg38
Nsg39
Nstp85
Rp86
sbtp87
Rp88
(dp89
btp90
Rp91
(dp92
bg7
(g8
(g82
g61
tp93
Rp94
(dp95
bg8
(g11
g13
(S'z910'
p96
tp97
Rp98
(dp99
g18
g0
(g19
g20
(dp100
g50
Nsg34
Nsg35
I01
sg52
Nsg26
Nsg36
Nsg37
Nsg38
Nsg53
Nsg28
Nsg54
Nsg56
Nsg27
Nsg55
Nsg51
Nstp101
Rp102
sbtp103
Rp104
(dp105
bg8
(g9
(I4
tp106
Rp107
(dp108
bg13
(S'z911'
p109
tp110
Rp111
(dp112
g18
g0
(g19
g20
(dp113
g50
Nsg34
Nsg35
I01
sg52
Nsg26
Nsg36
Nsg37
Nsg38
Nsg53
Nsg28
Nsg54
Nsg56
Nsg27
Nsg55
Nsg51
Nstp114
Rp115
sbtp116
Rp117
(dp118
bg13
(S'z5556'
p119
tp120
Rp121
(dp122
g18
g0
(g19
g20
(dp123
g50
Nsg51
Nsg52
Nsg26
Nsg27
Nsg53
Nsg54
Nsg30
Nsg55
Nsg32
Nsg34
Nsg35
I01
sg28
Nsg36
Nsg37
Nsg38
Nsg56
Nstp124
Rp125
sbtp126
Rp127
(dp128
btp129
Rp130
(dp131
bag6
(g7
(g13
(S'p6'
p132
tp133
Rp134
(dp135
g18
g0
(g19
g20
(dp136
g50
Nsg23
Nsg51
Nsg52
Nsg26
Nsg27
Nsg37
Nsg53
Nsg29
NsS'integer'
p137
Nsg55
NsS'odd'
p138
Nsg34
Nsg35
I01
sg36
Nsg28
Nsg38
Nsg56
Nstp139
Rp140
sbg43
g13
(S'q4'
p141
tp142
Rp143
(dp144
g18
g0
(g19
g20
(dp145
g22
Nsg24
Nsg25
Nsg26
Nsg27
Nsg28
Nsg29
Nsg30
Nsg31
Nsg32
Nsg33
Nsg34
Nsg35
I01
sg36
Nsg37
Nsg38
Nsg39
Nstp146
Rp147
sbg82
g13
(S'q6'
p148
tp149
Rp150
(dp151
g18
g0
(g19
g20
(dp152
g22
Nsg23
Nsg24
Nsg25
Nsg26
Nsg27
Nsg31
Nsg29
Nsg30
Nsg33
Nsg32
Nsg34
Nsg35
I01
sg28
Nsg36
Nsg37
Nsg38
Nsg39
Nstp153
Rp154
sbtp155
Rp156
(dp157
bg7
(g8
(g11
g82
g143
tp158
Rp159
(dp160
bg8
(g107
g13
(S'z68'
p161
tp162
Rp163
(dp164
g18
g0
(g19
g20
(dp165
g22
Nsg24
Nsg25
Nsg26
Nsg27
Nsg31
Nsg29
Nsg30
Nsg33
Nsg32
Nsg34
Nsg35
I01
sg28
Nsg36
Nsg37
Nsg38
Nsg39
Nstp166
Rp167
sbtp168
Rp169
(dp170
bg121
g8
(g11
g13
(S'z67'
p171
tp172
Rp173
(dp174
g18
g0
(g19
g20
(dp175
g22
Nsg24
Nsg25
Nsg26
Nsg27
Nsg31
Nsg29
Nsg30
Nsg33
Nsg32
Nsg34
Nsg35
I01
sg28
Nsg36
Nsg37
Nsg38
Nsg39
Nstp176
Rp177
sbtp178
Rp179
(dp180
btp181
Rp182
(dp183
btp184
Rp185
(dp186
bag6
(g7
(g163
g150
g61
g13
(S'z78'
p187
tp188
Rp189
(dp190
g18
g0
(g19
g20
(dp191
g50
Nsg34
Nsg51
Nsg52
Nsg26
Nsg36
Nsg37
Nsg38
Nsg53
Nsg28
Nsg54
Nsg56
Nsg27
Nsg55
Nsg35
I01
stp192
Rp193
sbg75
g8
(g134
g82
tp194
Rp195
(dp196
btp197
Rp198
(dp199
bg7
(csympy.core.numbers
One
p200
(tRp201
(dp202
bg8
(g107
g13
(S'z810'
p203
tp204
Rp205
(dp206
g18
g0
(g19
g20
(dp207
g50
Nsg34
Nsg51
Nsg52
Nsg26
Nsg36
Nsg37
Nsg38
Nsg53
Nsg28
Nsg54
Nsg56
Nsg27
Nsg55
Nsg35
I01
stp208
Rp209
sbtp210
Rp211
(dp212
bg8
(g82
g150
tp213
Rp214
(dp215
bg8
(g11
g68
tp216
Rp217
(dp218
btp219
Rp220
(dp221
btp222
Rp223
(dp224
bag6
(g7
(g134
g173
g8
(g107
g16
tp225
Rp226
(dp227
bg150
g61
g75
tp228
Rp229
(dp230
bg7
(g8
(g11
g189
tp231
Rp232
(dp233
bg8
(g11
g121
tp234
Rp235
(dp236
bg8
(g107
g47
tp237
Rp238
(dp239
bg8
(g9
(I8
tp240
Rp241
(dp242
bg13
(S'z710'
p243
tp244
Rp245
(dp246
g18
g0
(g19
g20
(dp247
g50
Nsg34
Nsg35
I01
sg52
Nsg26
Nsg36
Nsg37
Nsg38
Nsg53
Nsg28
Nsg54
Nsg56
Nsg27
Nsg55
Nsg51
Nstp248
Rp249
sbtp250
Rp251
(dp252
btp253
Rp254
(dp255
btp256
Rp257
(dp258
bag6
(g7
(g13
(S'z1011'
p259
tp260
Rp261
(dp262
g18
g0
(g19
g20
(dp263
g50
Nsg51
Nsg52
Nsg26
Nsg27
Nsg53
Nsg54
Nsg30
Nsg55
Nsg32
Nsg34
Nsg35
I01
sg28
Nsg36
Nsg37
Nsg38
Nsg56
Nstp264
Rp265
sbg8
(g11
g16
g150
tp266
Rp267
(dp268
bg8
(g75
g143
tp269
Rp270
(dp271
bg61
g111
g8
(g11
g134
g16
tp272
Rp273
(dp274
btp275
Rp276
(dp277
bg7
(g8
(g150
g121
tp278
Rp279
(dp280
bg8
(g134
g121
tp281
Rp282
(dp283
bg8
(g11
g13
(S'z1112'
p284
tp285
Rp286
(dp287
g18
g0
(g19
g20
(dp288
g22
Nsg23
Nsg24
Nsg25
Nsg26
Nsg27
Nsg31
Nsg29
Nsg30
Nsg33
Nsg32
Nsg34
Nsg35
I01
sg28
Nsg36
Nsg37
Nsg38
Nsg39
Nstp289
Rp290
sbtp291
Rp292
(dp293
bg8
(g143
g61
tp294
Rp295
(dp296
btp297
Rp298
(dp299
btp300
Rp301
(dp302
bag6
(g7
(g8
(g9
(I2147483647
tp303
Rp304
(dp305
bg13
(S'z5556'
p306
tp307
Rp308
(dp309
g18
g0
(g19
g20
(dp310
g22
NsS'commutative'
p311
I01
sg25
NsS'nonpositive'
p312
NsS'positive'
p313
NsS'negative'
p314
NsS'nonnegative'
p315
Nsg31
NsS'zero'
p316
Nsg29
Nsg39
Nsg33
Nsg24
Nstp317
Rp318
sbtp319
Rp320
(dp321
bg8
(g134
g143
tp322
Rp323
(dp324
bg245
g150
g98
g8
(g9
(L2147483650L
tp325
Rp326
(dp327
bg13
(S'q5'
p328
tp329
Rp330
(dp331
g18
g0
(g19
g20
(dp332
g22
Nsg311
I01
sg25
Nsg312
Nsg313
Nsg314
Nsg315
Nsg31
Nsg316
Nsg29
Nsg39
Nsg33
Nsg24
Nstp333
Rp334
sbtp335
Rp336
(dp337
bg205
tp338
Rp339
(dp340
bg7
(g201
g8
(g11
g261
tp341
Rp342
(dp343
bg8
(g9
(L4294967296L
tp344
Rp345
(dp346
bg16
g121
tp347
Rp348
(dp349
bg8
(g107
g13
(S'z1012'
p350
tp351
Rp352
(dp353
g18
g0
(g19
g20
(dp354
g50
Nsg23
Nsg51
Nsg52
Nsg26
Nsg27
Nsg53
Nsg54
Nsg55
Nsg34
Nsg35
I01
sg28
Nsg36
Nsg37
Nsg38
Nsg56
Nstp355
Rp356
sbtp357
Rp358
(dp359
bg8
(g143
g150
tp360
Rp361
(dp362
btp363
Rp364
(dp365
btp366
Rp367
(dp368
bag6
(g7
(g134
g43
g150
tp369
Rp370
(dp371
bg7
(g8
(g11
g13
(S'z5657'
p372
tp373
Rp374
(dp375
g18
g0
(g19
g20
(dp376
g22
Nsg24
Nsg25
Nsg26
Nsg27
Nsg31
Nsg29
Nsg30
Nsg33
Nsg32
Nsg34
Nsg35
I01
sg28
Nsg36
Nsg37
Nsg38
Nsg39
Nstp377
Rp378
sbtp379
Rp380
(dp381
bg121
tp382
Rp383
(dp384
btp385
Rp386
(dp387
bag6
(g7
(g61
g374
g75
tp388
Rp389
(dp390
bg201
tp391
Rp392
(dp393
bag6
(g7
(g286
g352
g8
(g11
g75
g16
tp394
Rp395
(dp396
bg8
(g134
g150
tp397
Rp398
(dp399
bg8
(g11
g16
g61
tp400
Rp401
(dp402
btp403
Rp404
(dp405
bg7
(g201
g8
(g75
g121
tp406
Rp407
(dp408
bg8
(g61
g121
tp409
Rp410
(dp411
btp412
Rp413
(dp414
btp415
Rp416
(dp417
ba(dp418
g8
(g11
g61
g286
g13
(S'z57'
p419
tp420
Rp421
(dp422
g18
g0
(g19
g20
(dp423
g22
Nsg24
Nsg25
Nsg26
Nsg27
Nsg31
Nsg29
Nsg30
Nsg33
Nsg32
Nsg34
Nsg35
I01
sg28
Nsg36
Nsg37
Nsg38
Nsg39
Nstp424
Rp425
sbtp426
Rp427
(dp428
bg8
(g16
g61
g286
tp429
Rp430
(dp431
bsg8
(g9
(I11
tp432
Rp433
(dp434
bg75
g16
g286
tp435
Rp436
(dp437
bg8
(g9
(I10
tp438
Rp439
(dp440
bg75
g286
g421
tp441
Rp442
(dp443
bsg8
(g11
g16
tp444
Rp445
(dp446
bg8
(g11
g421
tp447
Rp448
(dp449
bsg8
(g75
g16
g352
tp450
Rp451
(dp452
bcsympy.core.numbers
Zero
p453
(tRp454
(dp455
bsg8
(g9
(I8192
tp456
Rp457
(dp458
bg75
g16
g61
g421
tp459
Rp460
(dp461
bg7
(g8
(g9
(I5461
tp462
Rp463
(dp464
bg75
g330
g61
tp465
Rp466
(dp467
bg8
(g9
(I2730
tp468
Rp469
(dp470
bg75
g61
g421
tp471
Rp472
(dp473
btp474
Rp475
(dp476
bsg8
(g9
(I10923
tp477
Rp478
(dp479
bg16
g61
g286
tp480
Rp481
(dp482
bg8
(g9
(I10922
tp483
Rp484
(dp485
bg61
g286
g421
tp486
Rp487
(dp488
bsg8
(g9
(I32
tp489
Rp490
(dp491
bg16
tp492
Rp493
(dp494
bg8
(g490
g421
tp495
Rp496
(dp497
bsg8
(g433
g134
g16
g150
g61
tp498
Rp499
(dp500
bg8
(g439
g134
g150
g61
g421
tp501
Rp502
(dp503
bsg8
(g9
(I683
tp504
Rp505
(dp506
bg134
g16
g150
g61
tp507
Rp508
(dp509
bg8
(g9
(I682
tp510
Rp511
(dp512
bg134
g150
g61
g421
tp513
Rp514
(dp515
bsg8
(g352
g286
tp516
Rp517
(dp518
bg454
sg8
(g9
(I171
tp519
Rp520
(dp521
bg75
g16
g352
tp522
Rp523
(dp524
bg8
(g9
(I170
tp525
Rp526
(dp527
bg75
g352
g421
tp528
Rp529
(dp530
bsg8
(g9
(I21846
tp531
Rp532
(dp533
bg75
g61
g421
tp534
Rp535
(dp536
bg8
(g9
(I21845
tp537
Rp538
(dp539
bg75
g16
g61
tp540
Rp541
(dp542
bsg8
(g9
(I342
tp543
Rp544
(dp545
bg134
g75
g150
g421
tp546
Rp547
(dp548
bg8
(g9
(I341
tp549
Rp550
(dp551
bg134
g75
g16
g150
tp552
Rp553
(dp554
bsg8
(g9
(I43
tp555
Rp556
(dp557
bg16
g61
g286
tp558
Rp559
(dp560
bg8
(g9
(I42
tp561
Rp562
(dp563
bg61
g286
g421
tp564
Rp565
(dp566
bsg8
(g9
(I22
tp567
Rp568
(dp569
bg75
g286
g421
tp570
Rp571
(dp572
bg8
(g9
(I21
tp573
Rp574
(dp575
bg75
g16
g286
tp576
Rp577
(dp578
bsg8
(g9
(I86
tp579
Rp580
(dp581
bg61
g286
g421
tp582
Rp583
(dp584
bg8
(g9
(I85
tp585
Rp586
(dp587
bg16
g61
g286
tp588
Rp589
(dp590
bsg8
(g9
(I32768
tp591
Rp592
(dp593
bg16
tp594
Rp595
(dp596
bg8
(g592
g421
tp597
Rp598
(dp599
bsg8
(g9
(I1366
tp600
Rp601
(dp602
bg75
g286
g421
tp603
Rp604
(dp605
bg8
(g9
(I1365
tp606
Rp607
(dp608
bg75
g16
g286
tp609
Rp610
(dp611
bsg8
(g9
(I5462
tp612
Rp613
(dp614
bg134
g150
g61
g421
tp615
Rp616
(dp617
bg8
(g463
g134
g16
g150
g61
tp618
Rp619
(dp620
bsg8
(g520
g134
g16
g150
g61
tp621
Rp622
(dp623
bg8
(g526
g134
g150
g61
g421
tp624
Rp625
(dp626
bsg8
(g433
g75
g16
g61
tp627
Rp628
(dp629
bg8
(g439
g75
g61
g421
tp630
Rp631
(dp632
bsg8
(g134
g75
g16
g150
tp633
Rp634
(dp635
bg454
sg8
(g9
(I6
tp636
Rp637
(dp638
bg75
g286
g421
tp639
Rp640
(dp641
bg8
(g9
(I5
tp642
Rp643
(dp644
bg75
g16
g286
tp645
Rp646
(dp647
bsg8
(g9
(I43691
tp648
Rp649
(dp650
bg134
g16
g150
g61
tp651
Rp652
(dp653
bg8
(g9
(I43690
tp654
Rp655
(dp656
bg134
g150
g61
g421
tp657
Rp658
(dp659
bsg8
(g556
g75
g16
g286
tp660
Rp661
(dp662
bg8
(g562
g75
g286
g421
tp663
Rp664
(dp665
bsg8
(g75
g374
tp666
Rp667
(dp668
bg454
sg8
(g601
g134
g150
g61
g421
tp669
Rp670
(dp671
bg8
(g607
g134
g16
g150
g61
tp672
Rp673
(dp674
bsg8
(g532
g75
g352
g421
tp675
Rp676
(dp677
bg8
(g538
g75
g16
g352
tp678
Rp679
(dp680
bsg8
(g580
g75
g286
g421
tp681
Rp682
(dp683
bg8
(g586
g75
g16
g286
tp684
Rp685
(dp686
bsg8
(g11
g75
g61
g421
tp687
Rp688
(dp689
bg8
(g75
g16
g61
tp690
Rp691
(dp692
bsg8
(g9
(I2731
tp693
Rp694
(dp695
bg16
g61
g286
tp696
Rp697
(dp698
bg8
(g469
g61
g286
g421
tp699
Rp700
(dp701
bsg13
(S'p5'
p702
tp703
Rp704
(dp705
g18
g0
(g19
g20
(dp706
g22
Nsg24
Nsg25
Nsg26
Nsg27
Nsg31
Nsg29
Nsg30
Nsg33
Nsg32
Nsg34
Nsg35
I01
sg28
Nsg36
Nsg37
Nsg38
Nsg39
Nstp707
Rp708
sbg16
sg8
(g9
(I109227
tp709
Rp710
(dp711
bg134
g16
g150
g61
tp712
Rp713
(dp714
bg8
(g9
(I109226
tp715
Rp716
(dp717
bg134
g150
g61
g421
tp718
Rp719
(dp720
bsg8
(g75
g61
g421
tp721
Rp722
(dp723
bg454
sg8
(g613
g75
g61
g421
tp724
Rp725
(dp726
bg8
(g463
g75
g16
g61
tp727
Rp728
(dp729
bsg8
(g9
(I256
tp730
Rp731
(dp732
bg421
tp733
Rp734
(dp735
bg8
(g731
g16
tp736
Rp737
(dp738
bsg8
(g637
g61
g352
g421
tp739
Rp740
(dp741
bg8
(g643
g16
g61
g352
tp742
Rp743
(dp744
bsg8
(g568
g134
g150
g61
g421
tp745
Rp746
(dp747
bg8
(g574
g134
g16
g150
g61
tp748
Rp749
(dp750
bsg8
(g613
g75
g352
g421
tp751
Rp752
(dp753
bg8
(g463
g75
g16
g352
tp754
Rp755
(dp756
bsg8
(g694
g134
g75
g16
g150
tp757
Rp758
(dp759
bg8
(g469
g134
g75
g150
g421
tp760
Rp761
(dp762
bsg8
(g9
(I16
tp763
Rp764
(dp765
bg421
tp766
Rp767
(dp768
bg8
(g764
g16
tp769
Rp770
(dp771
bsg8
(g637
g75
g61
g421
tp772
Rp773
(dp774
bg8
(g643
g75
g16
g61
tp775
Rp776
(dp777
bsg8
(g505
g75
g16
g286
tp778
Rp779
(dp780
bg8
(g511
g75
g286
g421
tp781
Rp782
(dp783
bsg8
(g75
g61
tp784
Rp785
(dp786
bg454
sg8
(g9
(I512
tp787
Rp788
(dp789
bg16
tp790
Rp791
(dp792
bg8
(g788
g421
tp793
Rp794
(dp795
bsg8
(g478
g134
g16
g150
g61
tp796
Rp797
(dp798
bg8
(g484
g134
g150
g61
g421
tp799
Rp800
(dp801
bsg8
(g134
g16
g150
g61
tp802
Rp803
(dp804
bg454
sg8
(g613
g134
g75
g150
g421
tp805
Rp806
(dp807
bg8
(g463
g134
g75
g16
g150
tp808
Rp809
(dp810
bsg8
(g544
g75
g286
g421
tp811
Rp812
(dp813
bg8
(g550
g75
g16
g286
tp814
Rp815
(dp816
bsg8
(g710
g16
g61
g286
tp817
Rp818
(dp819
bg8
(g716
g61
g286
g421
tp820
Rp821
(dp822
bsg8
(g544
g61
g352
g421
tp823
Rp824
(dp825
bg8
(g550
g16
g61
g352
tp826
Rp827
(dp828
bsg8
(g544
g75
g352
g421
tp829
Rp830
(dp831
bg8
(g550
g75
g16
g352
tp832
Rp833
(dp834
bsg8
(g433
g16
g61
g352
tp835
Rp836
(dp837
bg8
(g439
g61
g352
g421
tp838
Rp839
(dp840
bsg8
(g478
g16
g61
g352
tp841
Rp842
(dp843
bg8
(g484
g61
g352
g421
tp844
Rp845
(dp846
bsg8
(g9
(I3
tp847
Rp848
(dp849
bg75
g16
g286
tp850
Rp851
(dp852
bg8
(g11
g75
g286
g421
tp853
Rp854
(dp855
bsg8
(g637
g75
g352
g421
tp856
Rp857
(dp858
bg8
(g643
g75
g16
g352
tp859
Rp860
(dp861
bsg854
g8
(g75
g16
g286
tp862
Rp863
(dp864
bsg8
(g9
(I128
tp865
Rp866
(dp867
bg16
tp868
Rp869
(dp870
bg8
(g866
g421
tp871
Rp872
(dp873
bsg8
(g134
g150
g286
tp874
Rp875
(dp876
bg454
sg8
(g11
g134
g75
g150
g421
tp877
Rp878
(dp879
bg634
sg8
(g9
(I2048
tp880
Rp881
(dp882
bg75
g16
g61
g421
tp883
Rp884
(dp885
bg7
(g8
(g607
g75
g330
g61
tp886
Rp887
(dp888
bg8
(g511
g75
g61
g421
tp889
Rp890
(dp891
btp892
Rp893
(dp894
bsg8
(g490
g75
g16
g61
g421
tp895
Rp896
(dp897
bg7
(g8
(g574
g75
g330
g61
tp898
Rp899
(dp900
bg8
(g439
g75
g61
g421
tp901
Rp902
(dp903
btp904
Rp905
(dp906
bsg421
g121
sg8
(g433
g75
g16
g352
tp907
Rp908
(dp909
bg8
(g439
g75
g352
g421
tp910
Rp911
(dp912
bsg8
(g764
g75
g16
g61
g421
tp913
Rp914
(dp915
bg7
(g8
(g439
g75
g61
g421
tp916
Rp917
(dp918
bg8
(g643
g75
g330
g61
tp919
Rp920
(dp921
btp922
Rp923
(dp924
bsg8
(g637
g134
g75
g150
g421
tp925
Rp926
(dp927
bg8
(g643
g134
g75
g16
g150
tp928
Rp929
(dp930
bsg8
(g694
g75
g16
g286
tp931
Rp932
(dp933
bg8
(g469
g75
g286
g421
tp934
Rp935
(dp936
bsg8
(g11
g61
g352
g421
tp937
Rp938
(dp939
bg8
(g16
g61
g352
tp940
Rp941
(dp942
bsg8
(g544
g61
g286
g421
tp943
Rp944
(dp945
bg8
(g550
g16
g61
g286
tp946
Rp947
(dp948
bsg8
(g568
g75
g61
g421
tp949
Rp950
(dp951
bg8
(g574
g75
g16
g61
tp952
Rp953
(dp954
bsg8
(g241
g75
g16
g61
g421
tp955
Rp956
(dp957
bg7
(g8
(g11
g75
g61
g421
tp958
Rp959
(dp960
bg8
(g643
g75
g330
g61
tp961
Rp962
(dp963
btp964
Rp965
(dp966
bsg8
(g61
g286
g421
tp967
Rp968
(dp969
bg454
sg8
(g9
(I1024
tp970
Rp971
(dp972
bg75
g16
g61
g421
tp973
Rp974
(dp975
bg7
(g8
(g511
g75
g61
g421
tp976
Rp977
(dp978
bg8
(g550
g75
g330
g61
tp979
Rp980
(dp981
btp982
Rp983
(dp984
bsg8
(g601
g75
g61
g421
tp985
Rp986
(dp987
bg8
(g607
g75
g16
g61
tp988
Rp989
(dp990
bsg8
(g520
g134
g75
g16
g150
tp991
Rp992
(dp993
bg8
(g526
g134
g75
g150
g421
tp994
Rp995
(dp996
bsg8
(g433
g134
g75
g16
g150
tp997
Rp998
(dp999
bg8
(g439
g134
g75
g150
g421
tp1000
Rp1001
(dp1002
bsg8
(g9
(I16384
tp1003
Rp1004
(dp1005
bg75
g16
g61
g421
tp1006
Rp1007
(dp1008
bg7
(g8
(g463
g75
g330
g61
tp1009
Rp1010
(dp1011
bg8
(g484
g75
g61
g421
tp1012
Rp1013
(dp1014
btp1015
Rp1016
(dp1017
bsg8
(g556
g134
g16
g150
g61
tp1018
Rp1019
(dp1020
bg8
(g562
g134
g150
g61
g421
tp1021
Rp1022
(dp1023
bsg8
(g848
g75
g16
g61
tp1024
Rp1025
(dp1026
bg688
sg8
(g532
g61
g352
g421
tp1027
Rp1028
(dp1029
bg8
(g538
g16
g61
g352
tp1030
Rp1031
(dp1032
bsg8
(g694
g134
g16
g150
g61
tp1033
Rp1034
(dp1035
bg8
(g469
g134
g150
g61
g421
tp1036
Rp1037
(dp1038
bsg8
(g601
g134
g75
g150
g421
tp1039
Rp1040
(dp1041
bg8
(g607
g134
g75
g16
g150
tp1042
Rp1043
(dp1044
bsg8
(g107
g75
g16
g61
g421
tp1045
Rp1046
(dp1047
bg7
(g8
(g75
g16
g61
tp1048
Rp1049
(dp1050
bg8
(g11
g75
g61
g421
tp1051
Rp1052
(dp1053
btp1054
Rp1055
(dp1056
bsg8
(g556
g16
g61
g352
tp1057
Rp1058
(dp1059
bg8
(g562
g61
g352
g421
tp1060
Rp1061
(dp1062
bsg8
(g75
g352
g421
tp1063
Rp1064
(dp1065
bg454
sg8
(g478
g134
g75
g16
g150
tp1066
Rp1067
(dp1068
bg8
(g484
g134
g75
g150
g421
tp1069
Rp1070
(dp1071
bsg8
(g520
g75
g16
g61
tp1072
Rp1073
(dp1074
bg8
(g526
g75
g61
g421
tp1075
Rp1076
(dp1077
bsg8
(g9
(I4096
tp1078
Rp1079
(dp1080
bg421
tp1081
Rp1082
(dp1083
bg8
(g1079
g16
tp1084
Rp1085
(dp1086
bsg8
(g580
g75
g61
g421
tp1087
Rp1088
(dp1089
bg8
(g586
g75
g16
g61
tp1090
Rp1091
(dp1092
bsg8
(g134
g75
g150
g421
tp1093
Rp1094
(dp1095
bg454
sg8
(g544
g134
g150
g61
g421
tp1096
Rp1097
(dp1098
bg8
(g550
g134
g16
g150
g61
tp1099
Rp1100
(dp1101
bsg8
(g848
g134
g16
g150
g61
tp1102
Rp1103
(dp1104
bg8
(g11
g134
g150
g61
g421
tp1105
Rp1106
(dp1107
bsg8
(g532
g134
g75
g150
g421
tp1108
Rp1109
(dp1110
bg8
(g538
g134
g75
g16
g150
tp1111
Rp1112
(dp1113
bsg8
(g848
g16
g61
g352
tp1114
Rp1115
(dp1116
bg938
sg8
(g532
g61
g286
g421
tp1117
Rp1118
(dp1119
bg8
(g538
g16
g61
g286
tp1120
Rp1121
(dp1122
bsg8
(g9
(I64
tp1123
Rp1124
(dp1125
bg75
g16
g61
g421
tp1126
Rp1127
(dp1128
bg7
(g8
(g574
g75
g330
g61
tp1129
Rp1130
(dp1131
bg8
(g562
g75
g61
g421
tp1132
Rp1133
(dp1134
btp1135
Rp1136
(dp1137
bsg8
(g971
g421
tp1138
Rp1139
(dp1140
bg8
(g971
g16
tp1141
Rp1142
(dp1143
bsg8
(g505
g75
g16
g61
tp1144
Rp1145
(dp1146
bg8
(g511
g75
g61
g421
tp1147
Rp1148
(dp1149
bsg8
(g601
g61
g286
g421
tp1150
Rp1151
(dp1152
bg8
(g607
g16
g61
g286
tp1153
Rp1154
(dp1155
bsg8
(g134
g150
g352
tp1156
Rp1157
(dp1158
bg454
sg8
(g520
g16
g61
g286
tp1159
Rp1160
(dp1161
bg8
(g526
g61
g286
g421
tp1162
Rp1163
(dp1164
bsg8
(g580
g61
g352
g421
tp1165
Rp1166
(dp1167
bg8
(g586
g16
g61
g352
tp1168
Rp1169
(dp1170
bsg8
(g505
g16
g61
g286
tp1171
Rp1172
(dp1173
bg8
(g511
g61
g286
g421
tp1174
Rp1175
(dp1176
bsg8
(g478
g75
g16
g61
tp1177
Rp1178
(dp1179
bg8
(g484
g75
g61
g421
tp1180
Rp1181
(dp1182
bsg8
(g520
g16
g61
g352
tp1183
Rp1184
(dp1185
bg8
(g526
g61
g352
g421
tp1186
Rp1187
(dp1188
bsg8
(g580
g134
g150
g61
g421
tp1189
Rp1190
(dp1191
bg8
(g586
g134
g16
g150
g61
tp1192
Rp1193
(dp1194
bsg8
(g568
g75
g352
g421
tp1195
Rp1196
(dp1197
bg8
(g574
g75
g16
g352
tp1198
Rp1199
(dp1200
bsg8
(g601
g75
g352
g421
tp1201
Rp1202
(dp1203
bg8
(g607
g75
g16
g352
tp1204
Rp1205
(dp1206
bsg8
(g478
g75
g16
g286
tp1207
Rp1208
(dp1209
bg8
(g484
g75
g286
g421
tp1210
Rp1211
(dp1212
bsg8
(g107
g421
tp1213
Rp1214
(dp1215
bg8
(g107
g16
tp1216
Rp1217
(dp1218
bsg8
(g75
g150
tp1219
Rp1220
(dp1221
bg454
sg8
(g433
g16
g61
g286
tp1222
Rp1223
(dp1224
bg8
(g439
g61
g286
g421
tp1225
Rp1226
(dp1227
bsg8
(g75
g286
g421
tp1228
Rp1229
(dp1230
bg454
sg8
(g568
g134
g75
g150
g421
tp1231
Rp1232
(dp1233
bg8
(g574
g134
g75
g16
g150
tp1234
Rp1235
(dp1236
bsg8
(g532
g75
g286
g421
tp1237
Rp1238
(dp1239
bg8
(g538
g75
g16
g286
tp1240
Rp1241
(dp1242
bsg8
(g866
g75
g16
g61
g421
tp1243
Rp1244
(dp1245
bg7
(g8
(g586
g75
g330
g61
tp1246
Rp1247
(dp1248
bg8
(g562
g75
g61
g421
tp1249
Rp1250
(dp1251
btp1252
Rp1253
(dp1254
bsg8
(g649
g16
g61
g286
tp1255
Rp1256
(dp1257
bg8
(g655
g61
g286
g421
tp1258
Rp1259
(dp1260
bsg8
(g556
g75
g16
g352
tp1261
Rp1262
(dp1263
bg8
(g562
g75
g352
g421
tp1264
Rp1265
(dp1266
bsg8
(g75
g16
g61
g421
tp1267
Rp1268
(dp1269
bg454
sg1106
g8
(g134
g16
g150
g61
tp1270
Rp1271
(dp1272
bsg8
(g520
g75
g16
g286
tp1273
Rp1274
(dp1275
bg8
(g526
g75
g286
g421
tp1276
Rp1277
(dp1278
bsg8
(g788
g75
g16
g61
g421
tp1279
Rp1280
(dp1281
bg7
(g8
(g526
g75
g61
g421
tp1282
Rp1283
(dp1284
bg8
(g550
g75
g330
g61
tp1285
Rp1286
(dp1287
btp1288
Rp1289
(dp1290
bsg8
(g1004
g421
tp1291
Rp1292
(dp1293
bg8
(g1004
g16
tp1294
Rp1295
(dp1296
bsg8
(g457
g16
tp1297
Rp1298
(dp1299
bg8
(g457
g421
tp1300
Rp1301
(dp1302
bsg8
(g848
g16
g61
g286
tp1303
Rp1304
(dp1305
bg427
sg8
(g580
g75
g352
g421
tp1306
Rp1307
(dp1308
bg8
(g586
g75
g16
g352
tp1309
Rp1310
(dp1311
bsg8
(g9
(I131072
tp1312
Rp1313
(dp1314
bg75
g16
g61
g421
tp1315
Rp1316
(dp1317
bg7
(g8
(g716
g75
g61
g421
tp1318
Rp1319
(dp1320
bg8
(g538
g75
g330
g61
tp1321
Rp1322
(dp1323
btp1324
Rp1325
(dp1326
bsg8
(g1079
g75
g16
g61
g421
tp1327
Rp1328
(dp1329
bg7
(g8
(g607
g75
g330
g61
tp1330
Rp1331
(dp1332
bg8
(g469
g75
g61
g421
tp1333
Rp1334
(dp1335
btp1336
Rp1337
(dp1338
bsg8
(g848
g75
g16
g352
tp1339
Rp1340
(dp1341
bg8
(g11
g75
g352
g421
tp1342
Rp1343
(dp1344
bsg16
g421
sg8
(g710
g16
g61
g352
tp1345
Rp1346
(dp1347
bg8
(g716
g61
g352
g421
tp1348
Rp1349
(dp1350
bsg8
(g505
g134
g75
g16
g150
tp1351
Rp1352
(dp1353
bg8
(g511
g134
g75
g150
g421
tp1354
Rp1355
(dp1356
bsg8
(g637
g134
g150
g61
g421
tp1357
Rp1358
(dp1359
bg8
(g643
g134
g16
g150
g61
tp1360
Rp1361
(dp1362
bsg8
(g556
g134
g75
g16
g150
tp1363
Rp1364
(dp1365
bg8
(g562
g134
g75
g150
g421
tp1366
Rp1367
(dp1368
bsg8
(g649
g16
g61
g352
tp1369
Rp1370
(dp1371
bg8
(g655
g61
g352
g421
tp1372
Rp1373
(dp1374
bsg8
(g601
g61
g352
g421
tp1375
Rp1376
(dp1377
bg8
(g607
g16
g61
g352
tp1378
Rp1379
(dp1380
bsg8
(g613
g61
g286
g421
tp1381
Rp1382
(dp1383
bg8
(g463
g16
g61
g286
tp1384
Rp1385
(dp1386
bsg8
(g580
g134
g75
g150
g421
tp1387
Rp1388
(dp1389
bg8
(g586
g134
g75
g16
g150
tp1390
Rp1391
(dp1392
bsg8
(g16
g61
g286
tp1393
Rp1394
(dp1395
bg454
sg8
(g556
g75
g16
g61
tp1396
Rp1397
(dp1398
bg8
(g562
g75
g61
g421
tp1399
Rp1400
(dp1401
bsg8
(g848
g134
g75
g16
g150
tp1402
Rp1403
(dp1404
bg878
sg8
(g241
g16
tp1405
Rp1406
(dp1407
bg8
(g241
g421
tp1408
Rp1409
(dp1410
bsg8
(g694
g16
g61
g352
tp1411
Rp1412
(dp1413
bg8
(g469
g61
g352
g421
tp1414
Rp1415
(dp1416
bsg8
(g16
g61
g352
tp1417
Rp1418
(dp1419
bg454
sg8
(g544
g75
g61
g421
tp1420
Rp1421
(dp1422
bg8
(g550
g75
g16
g61
tp1423
Rp1424
(dp1425
bsg8
(g592
g75
g16
g61
g421
tp1426
Rp1427
(dp1428
bg7
(g8
(g484
g75
g61
g421
tp1429
Rp1430
(dp1431
bg8
(g538
g75
g330
g61
tp1432
Rp1433
(dp1434
btp1435
Rp1436
(dp1437
bsg8
(g613
g61
g352
g421
tp1438
Rp1439
(dp1440
bg8
(g463
g16
g61
g352
tp1441
Rp1442
(dp1443
bsg8
(g637
g61
g286
g421
tp1444
Rp1445
(dp1446
bg8
(g643
g16
g61
g286
tp1447
Rp1448
(dp1449
bsg8
(g1124
g421
tp1450
Rp1451
(dp1452
bg8
(g1124
g16
tp1453
Rp1454
(dp1455
bsg8
(g11
g75
g16
g61
g421
tp1456
Rp1457
(dp1458
bg691
sg691
g454
sg8
(g613
g75
g286
g421
tp1459
Rp1460
(dp1461
bg8
(g463
g75
g16
g286
tp1462
Rp1463
(dp1464
bsg8
(g61
g374
tp1465
Rp1466
(dp1467
bg454
sg8
(g134
g150
g61
g421
tp1468
Rp1469
(dp1470
bg454
sg8
(g532
g134
g150
g61
g421
tp1471
Rp1472
(dp1473
bg8
(g538
g134
g16
g150
g61
tp1474
Rp1475
(dp1476
bsg8
(g694
g75
g16
g61
tp1477
Rp1478
(dp1479
bg8
(g469
g75
g61
g421
tp1480
Rp1481
(dp1482
bsg8
(g9
(I65536
tp1483
Rp1484
(dp1485
bg75
g16
g61
g421
tp1486
Rp1487
(dp1488
bg7
(g8
(g538
g75
g330
g61
tp1489
Rp1490
(dp1491
bg8
(g655
g75
g61
g421
tp1492
Rp1493
(dp1494
btp1495
Rp1496
(dp1497
bsg1343
g451
sg863
g454
sg8
(g134
g61
tp1498
Rp1499
(dp1500
bg454
sg8
(g505
g75
g16
g352
tp1501
Rp1502
(dp1503
bg8
(g511
g75
g352
g421
tp1504
Rp1505
(dp1506
bsg121
g704
sg8
(g568
g61
g286
g421
tp1507
Rp1508
(dp1509
bg8
(g574
g16
g61
g286
tp1510
Rp1511
(dp1512
bsg8
(g731
g75
g16
g61
g421
tp1513
Rp1514
(dp1515
bg7
(g8
(g586
g75
g330
g61
tp1516
Rp1517
(dp1518
bg8
(g526
g75
g61
g421
tp1519
Rp1520
(dp1521
btp1522
Rp1523
(dp1524
bsg8
(g881
g16
tp1525
Rp1526
(dp1527
bg8
(g881
g421
tp1528
Rp1529
(dp1530
bsg8
(g61
g352
g421
tp1531
Rp1532
(dp1533
bg454
sg8
(g568
g61
g352
g421
tp1534
Rp1535
(dp1536
bg8
(g574
g16
g61
g352
tp1537
Rp1538
(dp1539
bsg8
(g478
g75
g16
g352
tp1540
Rp1541
(dp1542
bg8
(g484
g75
g352
g421
tp1543
Rp1544
(dp1545
bsg8
(g694
g75
g16
g352
tp1546
Rp1547
(dp1548
bg8
(g469
g75
g352
g421
tp1549
Rp1550
(dp1551
bsg8
(g505
g16
g61
g352
tp1552
Rp1553
(dp1554
bg8
(g511
g61
g352
g421
tp1555
Rp1556
(dp1557
bs(dp1558
g13
(S'z2428'
p1559
tp1560
Rp1561
(dp1562
g18
g0
(g19
g20
(dp1563
g50
Nsg34
Nsg35
I01
sg52
Nsg26
Nsg36
Nsg37
Nsg38
Nsg53
Nsg28
Nsg54
Nsg56
Nsg27
Nsg55
Nsg51
Nstp1564
Rp1565
sbg454
sg13
(S'z8186'
p1566
tp1567
Rp1568
(dp1569
g18
g0
(g19
g20
(dp1570
g50
Nsg34
Nsg35
I01
sg52
Nsg26
Nsg36
Nsg37
Nsg38
Nsg53
Nsg28
Nsg54
Nsg56
Nsg27
Nsg55
Nsg51
Nstp1571
Rp1572
sbg454
sg13
(S'z4750'
p1573
tp1574
Rp1575
(dp1576
g18
g0
(g19
g20
(dp1577
g22
Nsg24
Nsg25
Nsg26
Nsg27
Nsg31
Nsg29
Nsg30
Nsg33
Nsg32
Nsg34
Nsg35
I01
sg28
Nsg36
Nsg37
Nsg38
Nsg39
Nstp1578
Rp1579
sbg454
sg13
(S'z4448'
p1580
tp1581
Rp1582
(dp1583
g18
g0
(g19
g20
(dp1584
g50
Nsg34
Nsg35
I01
sg52
Nsg26
Nsg36
Nsg37
Nsg38
Nsg53
Nsg28
Nsg54
Nsg56
Nsg27
Nsg55
Nsg51
Nstp1585
Rp1586
sbg454
sg13
(S'z3234'
p1587
tp1588
Rp1589
(dp1590
g18
g0
(g19
g20
(dp1591
g22
Nsg24
Nsg25
Nsg26
Nsg27
Nsg31
Nsg29
Nsg30
Nsg33
Nsg32
Nsg34
Nsg35
I01
sg28
Nsg36
Nsg37
Nsg38
Nsg39
Nstp1592
Rp1593
sbg454
sg13
(S'z4244'
p1594
tp1595
Rp1596
(dp1597
g18
g0
(g19
g20
(dp1598
g50
Nsg34
Nsg35
I01
sg52
Nsg26
Nsg36
Nsg37
Nsg38
Nsg53
Nsg28
Nsg54
Nsg56
Nsg27
Nsg55
Nsg51
Nstp1599
Rp1600
sbg454
sg13
(S'z3034'
p1601
tp1602
Rp1603
(dp1604
g18
g0
(g19
g20
(dp1605
g50
Nsg51
Nsg52
Nsg26
Nsg27
Nsg53
Nsg54
Nsg30
Nsg55
Nsg32
Nsg34
Nsg35
I01
sg28
Nsg36
Nsg37
Nsg38
Nsg56
Nstp1606
Rp1607
sbg454
sg13
(S'z1718'
p1608
tp1609
Rp1610
(dp1611
g18
g0
(g19
g20
(dp1612
g50
Nsg34
Nsg35
I01
sg52
Nsg26
Nsg36
Nsg37
Nsg38
Nsg53
Nsg28
Nsg54
Nsg56
Nsg27
Nsg55
Nsg51
Nstp1613
Rp1614
sbg454
sg13
(S'z1820'
p1615
tp1616
Rp1617
(dp1618
g18
g0
(g19
g20
(dp1619
g34
Nsg22
Nsg35
I01
sg25
Nsg26
Nsg36
Nsg37
Nsg38
Nsg31
Nsg28
Nsg29
Nsg39
Nsg27
Nsg33
Nsg24
Nstp1620
Rp1621
sbg454
sg13
(S'z1517'
p1622
tp1623
Rp1624
(dp1625
g18
g0
(g19
g20
(dp1626
g34
Nsg22
Nsg35
I01
sg25
Nsg26
Nsg36
Nsg37
Nsg38
Nsg31
Nsg28
Nsg29
Nsg39
Nsg27
Nsg33
Nsg24
Nstp1627
Rp1628
sbg454
sg13
(S'z7980'
p1629
tp1630
Rp1631
(dp1632
g18
g0
(g19
g20
(dp1633
g50
Nsg51
Nsg52
Nsg26
Nsg27
Nsg53
Nsg54
Nsg30
Nsg55
Nsg32
Nsg34
Nsg35
I01
sg28
Nsg36
Nsg37
Nsg38
Nsg56
Nstp1634
Rp1635
sbg454
sg13
(S'z2124'
p1636
tp1637
Rp1638
(dp1639
g18
g0
(g19
g20
(dp1640
g50
Nsg34
Nsg35
I01
sg52
Nsg26
Nsg36
Nsg37
Nsg38
Nsg53
Nsg28
Nsg54
Nsg56
Nsg27
Nsg55
Nsg51
Nstp1641
Rp1642
sbg454
sg13
(S'p19'
p1643
tp1644
Rp1645
(dp1646
g18
g0
(g19
g20
(dp1647
g34
Nsg22
Nsg35
I01
sg25
Nsg26
Nsg36
Nsg37
Nsg38
Nsg31
Nsg28
Nsg29
Nsg39
Nsg27
Nsg33
Nsg24
Nstp1648
Rp1649
sbg454
sg13
(S'z2631'
p1650
tp1651
Rp1652
(dp1653
g18
g0
(g19
g20
(dp1654
g50
Nsg34
Nsg35
I01
sg52
Nsg26
Nsg36
Nsg37
Nsg38
Nsg53
Nsg28
Nsg54
Nsg56
Nsg27
Nsg55
Nsg51
Nstp1655
Rp1656
sbg454
sg13
(S'z5456'
p1657
tp1658
Rp1659
(dp1660
g18
g0
(g19
g20
(dp1661
g34
Nsg22
Nsg35
I01
sg25
Nsg26
Nsg36
Nsg37
Nsg38
Nsg31
Nsg28
Nsg29
Nsg39
Nsg27
Nsg33
Nsg24
Nstp1662
Rp1663
sbg454
sg13
(S'z3840'
p1664
tp1665
Rp1666
(dp1667
g18
g0
(g19
g20
(dp1668
g22
Nsg24
Nsg25
Nsg26
Nsg27
Nsg31
Nsg29
Nsg30
Nsg33
Nsg32
Nsg34
Nsg35
I01
sg28
Nsg36
Nsg37
Nsg38
Nsg39
Nstp1669
Rp1670
sbg454
sg13
(S'z7175'
p1671
tp1672
Rp1673
(dp1674
g18
g0
(g19
g20
(dp1675
g34
Nsg22
Nsg35
I01
sg25
Nsg26
Nsg36
Nsg37
Nsg38
Nsg31
Nsg28
Nsg29
Nsg39
Nsg27
Nsg33
Nsg24
Nstp1676
Rp1677
sbg454
sg13
(S'q46'
p1678
tp1679
Rp1680
(dp1681
g18
g0
(g19
g20
(dp1682
g34
Nsg22
Nsg35
I01
sg26
Nsg36
Nsg37
Nsg38
Nsg28
Nsg27
Nstp1683
Rp1684
sbg454
sg13
(S'z4752'
p1685
tp1686
Rp1687
(dp1688
g18
g0
(g19
g20
(dp1689
g34
Nsg22
Nsg35
I01
sg25
Nsg26
Nsg36
Nsg37
Nsg38
Nsg31
Nsg28
Nsg29
Nsg39
Nsg27
Nsg33
Nsg24
Nstp1690
Rp1691
sbg454
sg13
(S'z7677'
p1692
tp1693
Rp1694
(dp1695
g18
g0
(g19
g20
(dp1696
g50
Nsg34
Nsg35
I01
sg52
Nsg26
Nsg36
Nsg37
Nsg38
Nsg53
Nsg28
Nsg54
Nsg56
Nsg27
Nsg55
Nsg51
Nstp1697
Rp1698
sbg454
sg13
(S'z3839'
p1699
tp1700
Rp1701
(dp1702
g18
g0
(g19
g20
(dp1703
g50
Nsg51
Nsg52
Nsg26
Nsg27
Nsg53
Nsg54
Nsg30
Nsg55
Nsg32
Nsg34
Nsg35
I01
sg28
Nsg36
Nsg37
Nsg38
Nsg56
Nstp1704
Rp1705
sbg454
sg13
(S'z7477'
p1706
tp1707
Rp1708
(dp1709
g18
g0
(g19
g20
(dp1710
g34
Nsg22
Nsg35
I01
sg25
Nsg26
Nsg36
Nsg37
Nsg38
Nsg31
Nsg28
Nsg29
Nsg39
Nsg27
Nsg33
Nsg24
Nstp1711
Rp1712
sbg454
sg13
(S'z97100'
p1713
tp1714
Rp1715
(dp1716
g18
g0
(g19
g20
(dp1717
g34
Nsg22
Nsg35
I01
sg26
Nsg36
Nsg37
Nsg38
Nsg28
Nsg27
Nstp1718
Rp1719
sbg454
sg13
(S'z6869'
p1720
tp1721
Rp1722
(dp1723
g18
g0
(g19
g20
(dp1724
g34
Nsg22
Nsg35
I01
sg25
Nsg26
Nsg36
Nsg37
Nsg38
Nsg31
Nsg28
Nsg29
Nsg39
Nsg27
Nsg33
Nsg24
Nstp1725
Rp1726
sbg454
sg13
(S'p42'
p1727
tp1728
Rp1729
(dp1730
g18
g0
(g19
g20
(dp1731
g34
Nsg22
Nsg35
I01
sg25
Nsg26
Nsg36
Nsg37
Nsg38
Nsg31
Nsg28
Nsg29
Nsg39
Nsg27
Nsg33
Nsg24
Nstp1732
Rp1733
sbg454
sg13
(S'z1617'
p1734
tp1735
Rp1736
(dp1737
g18
g0
(g19
g20
(dp1738
g22
Nsg24
Nsg25
Nsg26
Nsg27
Nsg31
Nsg29
Nsg30
Nsg33
Nsg32
Nsg34
Nsg35
I01
sg28
Nsg36
Nsg37
Nsg38
Nsg39
Nstp1739
Rp1740
sbg454
sg13
(S'z6163'
p1741
tp1742
Rp1743
(dp1744
g18
g0
(g19
g20
(dp1745
g34
Nsg22
Nsg35
I01
sg25
Nsg26
Nsg36
Nsg37
Nsg38
Nsg31
Nsg28
Nsg29
Nsg39
Nsg27
Nsg33
Nsg24
Nstp1746
Rp1747
sbg454
sg13
(S'z1722'
p1748
tp1749
Rp1750
(dp1751
g18
g0
(g19
g20
(dp1752
g50
Nsg34
Nsg35
I01
sg52
Nsg26
Nsg36
Nsg37
Nsg38
Nsg53
Nsg28
Nsg54
Nsg56
Nsg27
Nsg55
Nsg51
Nstp1753
Rp1754
sbg454
sg13
(S'z6771'
p1755
tp1756
Rp1757
(dp1758
g18
g0
(g19
g20
(dp1759
g50
Nsg51
Nsg52
Nsg26
Nsg27
Nsg37
Nsg53
Nsg29
Nsg137
Nsg55
Nsg138
Nsg34
Nsg35
I01
sg36
Nsg28
Nsg38
Nsg56
Nstp1760
Rp1761
sbg454
sg13
(S'z4043'
p1762
tp1763
Rp1764
(dp1765
g18
g0
(g19
g20
(dp1766
g50
Nsg51
Nsg52
Nsg26
Nsg27
Nsg53
Nsg54
Nsg30
Nsg55
Nsg32
Nsg34
Nsg35
I01
sg28
Nsg36
Nsg37
Nsg38
Nsg56
Nstp1767
Rp1768
sbg454
sg13
(S'z1822'
p1769
tp1770
Rp1771
(dp1772
g18
g0
(g19
g20
(dp1773
g50
Nsg34
Nsg35
I01
sg52
Nsg26
Nsg36
Nsg37
Nsg38
Nsg53
Nsg28
Nsg54
Nsg56
Nsg27
Nsg55
Nsg51
Nstp1774
Rp1775
sbg454
sg13
(S'z4647'
p1776
tp1777
Rp1778
(dp1779
g18
g0
(g19
g20
(dp1780
g50
Nsg34
Nsg35
I01
sg52
Nsg26
Nsg36
Nsg37
Nsg38
Nsg53
Nsg28
Nsg54
Nsg56
Nsg27
Nsg55
Nsg51
Nstp1781
Rp1782
sbg454
sg13
(S'q39'
p1783
tp1784
Rp1785
(dp1786
g18
g0
(g19
g20
(dp1787
g34
Nsg22
Nsg35
I01
sg26
Nsg36
Nsg37
Nsg38
Nsg28
Nsg27
Nstp1788
Rp1789
sbg454
sg13
(S'z8486'
p1790
tp1791
Rp1792
(dp1793
g18
g0
(g19
g20
(dp1794
g50
Nsg34
Nsg35
I01
sg52
Nsg26
Nsg36
Nsg37
Nsg38
Nsg53
Nsg28
Nsg54
Nsg56
Nsg27
Nsg55
Nsg51
Nstp1795
Rp1796
sbg454
sg13
(S'q35'
p1797
tp1798
Rp1799
(dp1800
g18
g0
(g19
g20
(dp1801
g22
Nsg24
Nsg25
Nsg26
Nsg27
Nsg28
Nsg30
Nsg31
Nsg32
Nsg33
Nsg34
Nsg35
I01
sg36
Nsg37
Nsg38
Nsg39
Nstp1802
Rp1803
sbg454
sg13
(S'z3135'
p1804
tp1805
Rp1806
(dp1807
g18
g0
(g19
g20
(dp1808
g22
Nsg24
Nsg25
Nsg26
Nsg27
Nsg31
Nsg29
Nsg30
Nsg33
Nsg32
Nsg34
Nsg35
I01
sg28
Nsg36
Nsg37
Nsg38
Nsg39
Nstp1809
Rp1810
sbg454
sg13
(S'z7072'
p1811
tp1812
Rp1813
(dp1814
g18
g0
(g19
g20
(dp1815
g34
Nsg22
Nsg35
I01
sg25
Nsg26
Nsg36
Nsg37
Nsg38
Nsg31
Nsg28
Nsg29
Nsg39
Nsg27
Nsg33
Nsg24
Nstp1816
Rp1817
sbg454
sg13
(S'z5961'
p1818
tp1819
Rp1820
(dp1821
g18
g0
(g19
g20
(dp1822
g22
Nsg24
Nsg25
Nsg26
Nsg27
Nsg31
Nsg29
Nsg30
Nsg33
Nsg32
Nsg34
Nsg35
I01
sg28
Nsg36
Nsg37
Nsg38
Nsg39
Nstp1823
Rp1824
sbg454
sg13
(S'z6468'
p1825
tp1826
Rp1827
(dp1828
g18
g0
(g19
g20
(dp1829
g50
Nsg34
Nsg35
I01
sg52
Nsg26
Nsg36
Nsg37
Nsg38
Nsg53
Nsg28
Nsg54
Nsg56
Nsg27
Nsg55
Nsg51
Nstp1830
Rp1831
sbg454
sg13
(S'z1621'
p1832
tp1833
Rp1834
(dp1835
g18
g0
(g19
g20
(dp1836
g50
Nsg34
Nsg35
I01
sg52
Nsg26
Nsg36
Nsg37
Nsg38
Nsg53
Nsg28
Nsg54
Nsg56
Nsg27
Nsg55
Nsg51
Nstp1837
Rp1838
sbg454
sg13
(S'z4952'
p1839
tp1840
Rp1841
(dp1842
g18
g0
(g19
g20
(dp1843
g50
Nsg34
Nsg51
Nsg52
Nsg26
Nsg36
Nsg37
Nsg38
Nsg53
Nsg28
Nsg54
Nsg56
Nsg27
Nsg55
Nsg35
I01
stp1844
Rp1845
sbg454
sg13
(S'z1620'
p1846
tp1847
Rp1848
(dp1849
g18
g0
(g19
g20
(dp1850
g34
Nsg22
Nsg35
I01
sg25
Nsg26
Nsg36
Nsg37
Nsg38
Nsg31
Nsg28
Nsg29
Nsg39
Nsg27
Nsg33
Nsg24
Nstp1851
Rp1852
sbg454
sg13
(S'q48'
p1853
tp1854
Rp1855
(dp1856
g18
g0
(g19
g20
(dp1857
g34
Nsg22
Nsg35
I01
sg26
Nsg36
Nsg37
Nsg38
Nsg28
Nsg27
Nstp1858
Rp1859
sbg454
sg13
(S'z4145'
p1860
tp1861
Rp1862
(dp1863
g18
g0
(g19
g20
(dp1864
g50
Nsg34
Nsg35
I01
sg52
Nsg26
Nsg36
Nsg37
Nsg38
Nsg53
Nsg28
Nsg54
Nsg56
Nsg27
Nsg55
Nsg51
Nstp1865
Rp1866
sbg454
sg13
(S'z4850'
p1867
tp1868
Rp1869
(dp1870
g18
g0
(g19
g20
(dp1871
g50
Nsg51
Nsg52
Nsg26
Nsg27
Nsg53
Nsg54
Nsg30
Nsg55
Nsg32
Nsg34
Nsg35
I01
sg28
Nsg36
Nsg37
Nsg38
Nsg56
Nstp1872
Rp1873
sbg454
sg13
(S'z1214'
p1874
tp1875
Rp1876
(dp1877
g18
g0
(g19
g20
(dp1878
g34
Nsg22
Nsg35
I01
sg25
Nsg26
Nsg36
Nsg37
Nsg38
Nsg31
Nsg28
Nsg29
Nsg39
Nsg27
Nsg33
Nsg24
Nstp1879
Rp1880
sbg454
sg13
(S'z4144'
p1881
tp1882
Rp1883
(dp1884
g18
g0
(g19
g20
(dp1885
g50
Nsg34
Nsg35
I01
sg52
Nsg26
Nsg36
Nsg37
Nsg38
Nsg53
Nsg28
Nsg54
Nsg56
Nsg27
Nsg55
Nsg51
Nstp1886
Rp1887
sbg454
sg13
(S'z4648'
p1888
tp1889
Rp1890
(dp1891
g18
g0
(g19
g20
(dp1892
g50
Nsg34
Nsg35
I01
sg52
Nsg26
Nsg36
Nsg37
Nsg38
Nsg53
Nsg28
Nsg54
Nsg56
Nsg27
Nsg55
Nsg51
Nstp1893
Rp1894
sbg454
sg13
(S'p44'
p1895
tp1896
Rp1897
(dp1898
g18
g0
(g19
g20
(dp1899
g34
Nsg22
Nsg35
I01
sg25
Nsg26
Nsg36
Nsg37
Nsg38
Nsg31
Nsg28
Nsg29
Nsg39
Nsg27
Nsg33
Nsg24
Nstp1900
Rp1901
sbg454
sg13
(S'z3338'
p1902
tp1903
Rp1904
(dp1905
g18
g0
(g19
g20
(dp1906
g34
Nsg22
Nsg35
I01
sg25
Nsg26
Nsg36
Nsg37
Nsg38
Nsg31
Nsg28
Nsg29
Nsg39
Nsg27
Nsg33
Nsg24
Nstp1907
Rp1908
sbg454
sg13
(S'z6366'
p1909
tp1910
Rp1911
(dp1912
g18
g0
(g19
g20
(dp1913
g34
Nsg22
Nsg35
I01
sg25
Nsg26
Nsg36
Nsg37
Nsg38
Nsg31
Nsg28
Nsg29
Nsg39
Nsg27
Nsg33
Nsg24
Nstp1914
Rp1915
sbg454
sg13
(S'z4649'
p1916
tp1917
Rp1918
(dp1919
g18
g0
(g19
g20
(dp1920
g34
Nsg22
Nsg35
I01
sg25
Nsg26
Nsg36
Nsg37
Nsg38
Nsg31
Nsg28
Nsg29
Nsg39
Nsg27
Nsg33
Nsg24
Nstp1921
Rp1922
sbg454
sg13
(S'z4045'
p1923
tp1924
Rp1925
(dp1926
g18
g0
(g19
g20
(dp1927
g50
Nsg34
Nsg35
I01
sg52
Nsg26
Nsg36
Nsg37
Nsg38
Nsg53
Nsg28
Nsg54
Nsg56
Nsg27
Nsg55
Nsg51
Nstp1928
Rp1929
sbg454
sg13
(S'z3742'
p1930
tp1931
Rp1932
(dp1933
g18
g0
(g19
g20
(dp1934
g50
Nsg34
Nsg35
I01
sg52
Nsg26
Nsg36
Nsg37
Nsg38
Nsg53
Nsg28
Nsg54
Nsg56
Nsg27
Nsg55
Nsg51
Nstp1935
Rp1936
sbg454
sg13
(S'z5054'
p1937
tp1938
Rp1939
(dp1940
g18
g0
(g19
g20
(dp1941
g34
Nsg22
Nsg35
I01
sg25
Nsg26
Nsg36
Nsg37
Nsg38
Nsg31
Nsg28
Nsg29
Nsg39
Nsg27
Nsg33
Nsg24
Nstp1942
Rp1943
sbg454
sg13
(S'z9192'
p1944
tp1945
Rp1946
(dp1947
g18
g0
(g19
g20
(dp1948
g22
Nsg24
Nsg25
Nsg26
Nsg27
Nsg31
Nsg29
Nsg30
Nsg33
Nsg32
Nsg34
Nsg35
I01
sg28
Nsg36
Nsg37
Nsg38
Nsg39
Nstp1949
Rp1950
sbg454
sg13
(S'z9294'
p1951
tp1952
Rp1953
(dp1954
g18
g0
(g19
g20
(dp1955
g22
Nsg24
Nsg25
Nsg26
Nsg27
Nsg31
Nsg29
Nsg30
Nsg33
Nsg32
Nsg34
Nsg35
I01
sg28
Nsg36
Nsg37
Nsg38
Nsg39
Nstp1956
Rp1957
sbg454
sg13
(S'z4546'
p1958
tp1959
Rp1960
(dp1961
g18
g0
(g19
g20
(dp1962
g34
Nsg22
Nsg35
I01
sg25
Nsg26
Nsg36
Nsg37
Nsg38
Nsg31
Nsg28
Nsg29
Nsg39
Nsg27
Nsg33
Nsg24
Nstp1963
Rp1964
sbg454
sg13
(S'z8789'
p1965
tp1966
Rp1967
(dp1968
g18
g0
(g19
g20
(dp1969
g50
Nsg51
Nsg52
Nsg26
Nsg27
Nsg53
Nsg54
Nsg30
Nsg55
Nsg32
Nsg34
Nsg35
I01
sg28
Nsg36
Nsg37
Nsg38
Nsg56
Nstp1970
Rp1971
sbg454
sg13
(S'z8687'
p1972
tp1973
Rp1974
(dp1975
g18
g0
(g19
g20
(dp1976
g22
Nsg24
Nsg25
Nsg26
Nsg27
Nsg31
Nsg29
Nsg30
Nsg33
Nsg32
Nsg34
Nsg35
I01
sg28
Nsg36
Nsg37
Nsg38
Nsg39
Nstp1977
Rp1978
sbg454
sg13
(S'z2729'
p1979
tp1980
Rp1981
(dp1982
g18
g0
(g19
g20
(dp1983
g50
Nsg34
Nsg35
I01
sg52
Nsg26
Nsg36
Nsg37
Nsg38
Nsg53
Nsg28
Nsg54
Nsg56
Nsg27
Nsg55
Nsg51
Nstp1984
Rp1985
sbg454
sg13
(S'z69'
p1986
tp1987
Rp1988
(dp1989
g18
g0
(g19
g20
(dp1990
g34
Nsg22
Nsg35
I01
sg25
Nsg26
Nsg36
Nsg37
Nsg38
Nsg31
Nsg28
Nsg29
Nsg39
Nsg27
Nsg33
Nsg24
Nstp1991
Rp1992
sbg454
sg13
(S'z9295'
p1993
tp1994
Rp1995
(dp1996
g18
g0
(g19
g20
(dp1997
g50
Nsg34
Nsg35
I01
sg52
Nsg26
Nsg36
Nsg37
Nsg38
Nsg53
Nsg28
Nsg54
Nsg56
Nsg27
Nsg55
Nsg51
Nstp1998
Rp1999
sbg454
sg13
(S'z8587'
p2000
tp2001
Rp2002
(dp2003
g18
g0
(g19
g20
(dp2004
g34
Nsg22
Nsg35
I01
sg25
Nsg26
Nsg36
Nsg37
Nsg38
Nsg31
Nsg28
Nsg29
Nsg39
Nsg27
Nsg33
Nsg24
Nstp2005
Rp2006
sbg454
sg13
(S'z6267'
p2007
tp2008
Rp2009
(dp2010
g18
g0
(g19
g20
(dp2011
g50
Nsg34
Nsg35
I01
sg52
Nsg26
Nsg36
Nsg37
Nsg38
Nsg53
Nsg28
Nsg54
Nsg56
Nsg27
Nsg55
Nsg51
Nstp2012
Rp2013
sbg454
sg13
(S'q41'
p2014
tp2015
Rp2016
(dp2017
g18
g0
(g19
g20
(dp2018
g22
Nsg24
Nsg25
Nsg26
Nsg27
Nsg28
Nsg30
Nsg31
Nsg32
Nsg33
Nsg34
Nsg35
I01
sg36
Nsg37
Nsg38
Nsg39
Nstp2019
Rp2020
sbg454
sg13
(S'z2831'
p2021
tp2022
Rp2023
(dp2024
g18
g0
(g19
g20
(dp2025
g34
Nsg22
Nsg35
I01
sg25
Nsg26
Nsg36
Nsg37
Nsg38
Nsg31
Nsg28
Nsg29
Nsg39
Nsg27
Nsg33
Nsg24
Nstp2026
Rp2027
sbg454
sg13
(S'q11'
p2028
tp2029
Rp2030
(dp2031
g18
g0
(g19
g20
(dp2032
g22
Nsg24
Nsg25
Nsg26
Nsg27
Nsg28
Nsg29
Nsg30
Nsg31
Nsg32
Nsg33
Nsg34
Nsg35
I01
sg36
Nsg37
Nsg38
Nsg39
Nstp2033
Rp2034
sbg454
sg13
(S'z5861'
p2035
tp2036
Rp2037
(dp2038
g18
g0
(g19
g20
(dp2039
g50
Nsg34
Nsg35
I01
sg52
Nsg26
Nsg36
Nsg37
Nsg38
Nsg53
Nsg28
Nsg54
Nsg56
Nsg27
Nsg55
Nsg51
Nstp2040
Rp2041
sbg454
sg13
(S'z8588'
p2042
tp2043
Rp2044
(dp2045
g18
g0
(g19
g20
(dp2046
g50
Nsg51
Nsg52
Nsg26
Nsg27
Nsg53
Nsg54
Nsg30
Nsg55
Nsg32
Nsg34
Nsg35
I01
sg28
Nsg36
Nsg37
Nsg38
Nsg56
Nstp2047
Rp2048
sbg454
sg13
(S'z8081'
p2049
tp2050
Rp2051
(dp2052
g18
g0
(g19
g20
(dp2053
g34
Nsg22
Nsg35
I01
sg25
Nsg26
Nsg36
Nsg37
Nsg38
Nsg31
Nsg28
Nsg29
Nsg39
Nsg27
Nsg33
Nsg24
Nstp2054
Rp2055
sbg454
sg13
(S'z7277'
p2056
tp2057
Rp2058
(dp2059
g18
g0
(g19
g20
(dp2060
g34
Nsg22
Nsg35
I01
sg26
Nsg36
Nsg37
Nsg38
Nsg28
Nsg27
Nstp2061
Rp2062
sbg454
sg13
(S'p30'
p2063
tp2064
Rp2065
(dp2066
g18
g0
(g19
g20
(dp2067
g34
Nsg22
Nsg35
I01
sg25
Nsg26
Nsg36
Nsg37
Nsg38
Nsg31
Nsg28
Nsg29
Nsg39
Nsg27
Nsg33
Nsg24
Nstp2068
Rp2069
sbg454
sg13
(S'z6970'
p2070
tp2071
Rp2072
(dp2073
g18
g0
(g19
g20
(dp2074
g50
Nsg34
Nsg51
Nsg52
Nsg26
Nsg36
Nsg37
Nsg38
Nsg53
Nsg28
Nsg54
Nsg56
Nsg27
Nsg55
Nsg35
I01
stp2075
Rp2076
sbg454
sg13
(S'z3944'
p2077
tp2078
Rp2079
(dp2080
g18
g0
(g19
g20
(dp2081
g34
Nsg22
Nsg35
I01
sg25
Nsg26
Nsg36
Nsg37
Nsg38
Nsg31
Nsg28
Nsg29
Nsg39
Nsg27
Nsg33
Nsg24
Nstp2082
Rp2083
sbg454
sg13
(S'z6872'
p2084
tp2085
Rp2086
(dp2087
g18
g0
(g19
g20
(dp2088
g34
Nsg22
Nsg35
I01
sg25
Nsg26
Nsg36
Nsg37
Nsg38
Nsg31
Nsg28
Nsg29
Nsg39
Nsg27
Nsg33
Nsg24
Nstp2089
Rp2090
sbg454
sg13
(S'q13'
p2091
tp2092
Rp2093
(dp2094
g18
g0
(g19
g20
(dp2095
g34
Nsg22
Nsg35
I01
sg25
Nsg26
Nsg36
Nsg37
Nsg38
Nsg31
Nsg28
Nsg29
Nsg39
Nsg27
Nsg33
Nsg24
Nstp2096
Rp2097
sbg454
sg13
(S'z2829'
p2098
tp2099
Rp2100
(dp2101
g18
g0
(g19
g20
(dp2102
g50
Nsg51
Nsg52
Nsg26
Nsg27
Nsg53
Nsg54
Nsg30
Nsg55
Nsg32
Nsg34
Nsg35
I01
sg28
Nsg36
Nsg37
Nsg38
Nsg56
Nstp2103
Rp2104
sbg454
sg13
(S'z4955'
p2105
tp2106
Rp2107
(dp2108
g18
g0
(g19
g20
(dp2109
g50
Nsg34
Nsg35
I01
sg52
Nsg26
Nsg36
Nsg37
Nsg38
Nsg53
Nsg28
Nsg54
Nsg56
Nsg27
Nsg55
Nsg51
Nstp2110
Rp2111
sbg454
sg13
(S'z8990'
p2112
tp2113
Rp2114
(dp2115
g18
g0
(g19
g20
(dp2116
g50
Nsg51
Nsg52
Nsg26
Nsg27
Nsg53
Nsg54
Nsg30
Nsg55
Nsg32
Nsg34
Nsg35
I01
sg28
Nsg36
Nsg37
Nsg38
Nsg56
Nstp2117
Rp2118
sbg454
sg13
(S'z2227'
p2119
tp2120
Rp2121
(dp2122
g18
g0
(g19
g20
(dp2123
g50
Nsg34
Nsg51
Nsg52
Nsg26
Nsg36
Nsg37
Nsg38
Nsg53
Nsg28
Nsg54
Nsg56
Nsg27
Nsg55
Nsg35
I01
stp2124
Rp2125
sbg454
sg13
(S'z2126'
p2126
tp2127
Rp2128
(dp2129
g18
g0
(g19
g20
(dp2130
g50
Nsg34
Nsg35
I01
sg52
Nsg26
Nsg36
Nsg37
Nsg38
Nsg53
Nsg28
Nsg54
Nsg56
Nsg27
Nsg55
Nsg51
Nstp2131
Rp2132
sbg454
sg13
(S'z5056'
p2133
tp2134
Rp2135
(dp2136
g18
g0
(g19
g20
(dp2137
g50
Nsg34
Nsg35
I01
sg52
Nsg26
Nsg36
Nsg37
Nsg38
Nsg53
Nsg28
Nsg54
Nsg56
Nsg27
Nsg55
Nsg51
Nstp2138
Rp2139
sbg454
sg13
(S'z9091'
p2140
tp2141
Rp2142
(dp2143
g18
g0
(g19
g20
(dp2144
g50
Nsg51
Nsg52
Nsg26
Nsg27
Nsg53
Nsg54
Nsg30
Nsg55
Nsg32
Nsg34
Nsg35
I01
sg28
Nsg36
Nsg37
Nsg38
Nsg56
Nstp2145
Rp2146
sbg454
sg13
(S'z1821'
p2147
tp2148
Rp2149
(dp2150
g18
g0
(g19
g20
(dp2151
g34
Nsg22
Nsg35
I01
sg25
Nsg26
Nsg36
Nsg37
Nsg38
Nsg31
Nsg28
Nsg29
Nsg39
Nsg27
Nsg33
Nsg24
Nstp2152
Rp2153
sbg454
sg13
(S'q25'
p2154
tp2155
Rp2156
(dp2157
g18
g0
(g19
g20
(dp2158
g34
Nsg22
Nsg35
I01
sg26
Nsg36
Nsg37
Nsg38
Nsg28
Nsg27
Nstp2159
Rp2160
sbg454
sg13
(S'z6063'
p2161
tp2162
Rp2163
(dp2164
g18
g0
(g19
g20
(dp2165
g50
Nsg34
Nsg35
I01
sg52
Nsg26
Nsg36
Nsg37
Nsg38
Nsg53
Nsg28
Nsg54
Nsg56
Nsg27
Nsg55
Nsg51
Nstp2166
Rp2167
sbg454
sg13
(S'z4550'
p2168
tp2169
Rp2170
(dp2171
g18
g0
(g19
g20
(dp2172
g50
Nsg34
Nsg35
I01
sg52
Nsg26
Nsg36
Nsg37
Nsg38
Nsg53
Nsg28
Nsg54
Nsg56
Nsg27
Nsg55
Nsg51
Nstp2173
Rp2174
sbg454
sg13
(S'z8384'
p2175
tp2176
Rp2177
(dp2178
g18
g0
(g19
g20
(dp2179
g22
Nsg24
Nsg25
Nsg26
Nsg27
Nsg31
Nsg29
Nsg30
Nsg33
Nsg32
Nsg34
Nsg35
I01
sg28
Nsg36
Nsg37
Nsg38
Nsg39
Nstp2180
Rp2181
sbg454
sg13
(S'z4243'
p2182
tp2183
Rp2184
(dp2185
g18
g0
(g19
g20
(dp2186
g22
Nsg24
Nsg25
Nsg26
Nsg27
Nsg31
Nsg29
Nsg30
Nsg33
Nsg32
Nsg34
Nsg35
I01
sg28
Nsg36
Nsg37
Nsg38
Nsg39
Nstp2187
Rp2188
sbg454
sg13
(S'z7782'
p2189
tp2190
Rp2191
(dp2192
g18
g0
(g19
g20
(dp2193
g50
Nsg34
Nsg35
I01
sg52
Nsg26
Nsg36
Nsg37
Nsg38
Nsg53
Nsg28
Nsg54
Nsg56
Nsg27
Nsg55
Nsg51
Nstp2194
Rp2195
sbg454
sg13
(S'z4551'
p2196
tp2197
Rp2198
(dp2199
g18
g0
(g19
g20
(dp2200
g50
Nsg34
Nsg35
I01
sg52
Nsg26
Nsg36
Nsg37
Nsg38
Nsg53
Nsg28
Nsg54
Nsg56
Nsg27
Nsg55
Nsg51
Nstp2201
Rp2202
sbg454
sg13
(S'z3541'
p2203
tp2204
Rp2205
(dp2206
g18
g0
(g19
g20
(dp2207
g50
Nsg34
Nsg35
I01
sg52
Nsg26
Nsg36
Nsg37
Nsg38
Nsg53
Nsg28
Nsg54
Nsg56
Nsg27
Nsg55
Nsg51
Nstp2208
Rp2209
sbg454
sg13
(S'z9699'
p2210
tp2211
Rp2212
(dp2213
g18
g0
(g19
g20
(dp2214
g50
Nsg34
Nsg35
I01
sg52
Nsg26
Nsg36
Nsg37
Nsg38
Nsg53
Nsg28
Nsg54
Nsg56
Nsg27
Nsg55
Nsg51
Nstp2215
Rp2216
sbg454
sg13
(S'z2930'
p2217
tp2218
Rp2219
(dp2220
g18
g0
(g19
g20
(dp2221
g22
Nsg24
Nsg25
Nsg26
Nsg27
Nsg31
Nsg29
Nsg30
Nsg33
Nsg32
Nsg34
Nsg35
I01
sg28
Nsg36
Nsg37
Nsg38
Nsg39
Nstp2222
Rp2223
sbg454
sg13
(S'z3537'
p2224
tp2225
Rp2226
(dp2227
g18
g0
(g19
g20
(dp2228
g50
Nsg34
Nsg35
I01
sg52
Nsg26
Nsg36
Nsg37
Nsg38
Nsg53
Nsg28
Nsg54
Nsg56
Nsg27
Nsg55
Nsg51
Nstp2229
Rp2230
sbg454
sg13
(S'z1819'
p2231
tp2232
Rp2233
(dp2234
g18
g0
(g19
g20
(dp2235
g34
Nsg22
Nsg35
I01
sg25
Nsg26
Nsg36
Nsg37
Nsg38
Nsg31
Nsg28
Nsg29
Nsg39
Nsg27
Nsg33
Nsg24
Nstp2236
Rp2237
sbg454
sg13
(S'z5758'
p2238
tp2239
Rp2240
(dp2241
g18
g0
(g19
g20
(dp2242
g22
Nsg24
Nsg25
Nsg26
Nsg27
Nsg31
Nsg29
Nsg30
Nsg33
Nsg32
Nsg34
Nsg35
I01
sg28
Nsg36
Nsg37
Nsg38
Nsg39
Nstp2243
Rp2244
sbg454
sg13
(S'z6061'
p2245
tp2246
Rp2247
(dp2248
g18
g0
(g19
g20
(dp2249
g50
Nsg34
Nsg51
Nsg52
Nsg26
Nsg36
Nsg37
Nsg38
Nsg53
Nsg28
Nsg54
Nsg56
Nsg27
Nsg55
Nsg35
I01
stp2250
Rp2251
sbg454
sg13
(S'p25'
p2252
tp2253
Rp2254
(dp2255
g18
g0
(g19
g20
(dp2256
g34
Nsg22
Nsg35
I01
sg25
Nsg26
Nsg36
Nsg37
Nsg38
Nsg31
Nsg28
Nsg29
Nsg39
Nsg27
Nsg33
Nsg24
Nstp2257
Rp2258
sbg454
sg13
(S'z812'
p2259
tp2260
Rp2261
(dp2262
g18
g0
(g19
g20
(dp2263
g50
Nsg34
Nsg35
I01
sg52
Nsg26
Nsg36
Nsg37
Nsg38
Nsg53
Nsg28
Nsg54
Nsg56
Nsg27
Nsg55
Nsg51
Nstp2264
Rp2265
sbg454
sg13
(S'z9899'
p2266
tp2267
Rp2268
(dp2269
g18
g0
(g19
g20
(dp2270
g50
Nsg51
Nsg52
Nsg26
Nsg27
Nsg37
Nsg28
Nsg54
Nsg137
Nsg55
Nsg138
Nsg34
Nsg35
I01
sg36
Nsg53
Nsg38
Nsg56
Nstp2271
Rp2272
sbg454
sg13
(S'z7476'
p2273
tp2274
Rp2275
(dp2276
g18
g0
(g19
g20
(dp2277
g22
Nsg24
Nsg25
Nsg26
Nsg27
Nsg31
Nsg29
Nsg30
Nsg33
Nsg32
Nsg34
Nsg35
I01
sg28
Nsg36
Nsg37
Nsg38
Nsg39
Nstp2278
Rp2279
sbg454
sg13
(S'z6770'
p2280
tp2281
Rp2282
(dp2283
g18
g0
(g19
g20
(dp2284
g50
Nsg34
Nsg35
I01
sg52
Nsg26
Nsg36
Nsg37
Nsg38
Nsg53
Nsg28
Nsg54
Nsg56
Nsg27
Nsg55
Nsg51
Nstp2285
Rp2286
sbg454
sg13
(S'z6769'
p2287
tp2288
Rp2289
(dp2290
g18
g0
(g19
g20
(dp2291
g34
Nsg22
Nsg35
I01
sg25
Nsg26
Nsg36
Nsg37
Nsg38
Nsg31
Nsg28
Nsg29
Nsg39
Nsg27
Nsg33
Nsg24
Nstp2292
Rp2293
sbg454
sg13
(S'z5359'
p2294
tp2295
Rp2296
(dp2297
g18
g0
(g19
g20
(dp2298
g50
Nsg34
Nsg35
I01
sg52
Nsg26
Nsg36
Nsg37
Nsg38
Nsg53
Nsg28
Nsg54
Nsg56
Nsg27
Nsg55
Nsg51
Nstp2299
Rp2300
sbg454
sg13
(S'z5963'
p2301
tp2302
Rp2303
(dp2304
g18
g0
(g19
g20
(dp2305
g34
Nsg22
Nsg35
I01
sg25
Nsg26
Nsg36
Nsg37
Nsg38
Nsg31
Nsg28
Nsg29
Nsg39
Nsg27
Nsg33
Nsg24
Nstp2306
Rp2307
sbg454
sg13
(S'z4748'
p2308
tp2309
Rp2310
(dp2311
g18
g0
(g19
g20
(dp2312
g22
Nsg24
Nsg25
Nsg26
Nsg27
Nsg31
Nsg29
Nsg30
Nsg33
Nsg32
Nsg34
Nsg35
I01
sg28
Nsg36
Nsg37
Nsg38
Nsg39
Nstp2313
Rp2314
sbg454
sg13
(S'q32'
p2315
tp2316
Rp2317
(dp2318
g18
g0
(g19
g20
(dp2319
g22
Nsg24
Nsg25
Nsg26
Nsg27
Nsg28
Nsg30
Nsg31
Nsg32
Nsg33
Nsg34
Nsg35
I01
sg36
Nsg37
Nsg38
Nsg39
Nstp2320
Rp2321
sbg454
sg13
(S'z7276'
p2322
tp2323
Rp2324
(dp2325
g18
g0
(g19
g20
(dp2326
g34
Nsg22
Nsg35
I01
sg25
Nsg26
Nsg36
Nsg37
Nsg38
Nsg31
Nsg28
Nsg29
Nsg39
Nsg27
Nsg33
Nsg24
Nstp2327
Rp2328
sbg454
sg13
(S'q29'
p2329
tp2330
Rp2331
(dp2332
g18
g0
(g19
g20
(dp2333
g34
Nsg22
Nsg35
I01
sg26
Nsg36
Nsg37
Nsg38
Nsg28
Nsg27
Nstp2334
Rp2335
sbg454
sg13
(S'z7982'
p2336
tp2337
Rp2338
(dp2339
g18
g0
(g19
g20
(dp2340
g50
Nsg34
Nsg35
I01
sg52
Nsg26
Nsg36
Nsg37
Nsg38
Nsg53
Nsg28
Nsg54
Nsg56
Nsg27
Nsg55
Nsg51
Nstp2341
Rp2342
sbg454
sg13
(S'z1115'
p2343
tp2344
Rp2345
(dp2346
g18
g0
(g19
g20
(dp2347
g50
Nsg34
Nsg51
Nsg52
Nsg26
Nsg36
Nsg37
Nsg38
Nsg53
Nsg28
Nsg54
Nsg56
Nsg27
Nsg55
Nsg35
I01
stp2348
Rp2349
sbg454
sg13
(S'z6467'
p2350
tp2351
Rp2352
(dp2353
g18
g0
(g19
g20
(dp2354
g50
Nsg51
Nsg52
Nsg26
Nsg27
Nsg37
Nsg28
Nsg54
Nsg137
Nsg55
Nsg138
Nsg34
Nsg35
I01
sg36
Nsg53
Nsg38
Nsg56
Nstp2355
Rp2356
sbg454
sg13
(S'z2628'
p2357
tp2358
Rp2359
(dp2360
g18
g0
(g19
g20
(dp2361
g50
Nsg34
Nsg35
I01
sg52
Nsg26
Nsg36
Nsg37
Nsg38
Nsg53
Nsg28
Nsg54
Nsg56
Nsg27
Nsg55
Nsg51
Nstp2362
Rp2363
sbg454
sg13
(S'z6470'
p2364
tp2365
Rp2366
(dp2367
g18
g0
(g19
g20
(dp2368
g50
Nsg34
Nsg35
I01
sg52
Nsg26
Nsg36
Nsg37
Nsg38
Nsg53
Nsg28
Nsg54
Nsg56
Nsg27
Nsg55
Nsg51
Nstp2369
Rp2370
sbg454
sg13
(S'z6364'
p2371
tp2372
Rp2373
(dp2374
g18
g0
(g19
g20
(dp2375
g34
Nsg22
Nsg35
I01
sg25
Nsg26
Nsg36
Nsg37
Nsg38
Nsg31
Nsg28
Nsg29
Nsg39
Nsg27
Nsg33
Nsg24
Nstp2376
Rp2377
sbg454
sg13
(S'z4851'
p2378
tp2379
Rp2380
(dp2381
g18
g0
(g19
g20
(dp2382
g50
Nsg34
Nsg35
I01
sg52
Nsg26
Nsg36
Nsg37
Nsg38
Nsg53
Nsg28
Nsg54
Nsg56
Nsg27
Nsg55
Nsg51
Nstp2383
Rp2384
sbg454
sg13
(S'z12'
p2385
tp2386
Rp2387
(dp2388
g18
g0
(g19
g20
(dp2389
g50
Nsg34
Nsg51
Nsg52
Nsg26
Nsg36
Nsg37
Nsg38
Nsg53
Nsg28
Nsg54
Nsg56
Nsg27
Nsg55
Nsg35
I01
stp2390
Rp2391
sbg201
sg13
(S'z3339'
p2392
tp2393
Rp2394
(dp2395
g18
g0
(g19
g20
(dp2396
g50
Nsg34
Nsg51
Nsg52
Nsg26
Nsg36
Nsg37
Nsg38
Nsg53
Nsg28
Nsg54
Nsg56
Nsg27
Nsg55
Nsg35
I01
stp2397
Rp2398
sbg454
sg13
(S'p39'
p2399
tp2400
Rp2401
(dp2402
g18
g0
(g19
g20
(dp2403
g34
Nsg22
Nsg35
I01
sg25
Nsg26
Nsg36
Nsg37
Nsg38
Nsg31
Nsg28
Nsg29
Nsg39
Nsg27
Nsg33
Nsg24
Nstp2404
Rp2405
sbg454
sg13
(S'z6369'
p2406
tp2407
Rp2408
(dp2409
g18
g0
(g19
g20
(dp2410
g50
Nsg34
Nsg35
I01
sg52
Nsg26
Nsg36
Nsg37
Nsg38
Nsg53
Nsg28
Nsg54
Nsg56
Nsg27
Nsg55
Nsg51
Nstp2411
Rp2412
sbg454
sg13
(S'z1720'
p2413
tp2414
Rp2415
(dp2416
g18
g0
(g19
g20
(dp2417
g50
Nsg51
Nsg52
Nsg26
Nsg27
Nsg53
Nsg54
Nsg30
Nsg55
Nsg32
Nsg34
Nsg35
I01
sg28
Nsg36
Nsg37
Nsg38
Nsg56
Nstp2418
Rp2419
sbg454
sg13
(S'z5965'
p2420
tp2421
Rp2422
(dp2423
g18
g0
(g19
g20
(dp2424
g50
Nsg34
Nsg35
I01
sg52
Nsg26
Nsg36
Nsg37
Nsg38
Nsg53
Nsg28
Nsg54
Nsg56
Nsg27
Nsg55
Nsg51
Nstp2425
Rp2426
sbg454
sg13
(S'z9497'
p2427
tp2428
Rp2429
(dp2430
g18
g0
(g19
g20
(dp2431
g50
Nsg34
Nsg35
I01
sg52
Nsg26
Nsg36
Nsg37
Nsg38
Nsg53
Nsg28
Nsg54
Nsg56
Nsg27
Nsg55
Nsg51
Nstp2432
Rp2433
sbg454
sg13
(S'z1415'
p2434
tp2435
Rp2436
(dp2437
g18
g0
(g19
g20
(dp2438
g50
Nsg34
Nsg35
I01
sg52
Nsg26
Nsg36
Nsg37
Nsg38
Nsg53
Nsg28
Nsg54
Nsg56
Nsg27
Nsg55
Nsg51
Nstp2439
Rp2440
sbg454
sg13
(S'z4547'
p2441
tp2442
Rp2443
(dp2444
g18
g0
(g19
g20
(dp2445
g50
Nsg51
Nsg52
Nsg26
Nsg27
Nsg53
Nsg54
Nsg30
Nsg55
Nsg32
Nsg34
Nsg35
I01
sg28
Nsg36
Nsg37
Nsg38
Nsg56
Nstp2446
Rp2447
sbg454
sg13
(S'z3438'
p2448
tp2449
Rp2450
(dp2451
g18
g0
(g19
g20
(dp2452
g34
Nsg22
Nsg35
I01
sg25
Nsg26
Nsg36
Nsg37
Nsg38
Nsg31
Nsg28
Nsg29
Nsg39
Nsg27
Nsg33
Nsg24
Nstp2453
Rp2454
sbg454
sg13
(S'p22'
p2455
tp2456
Rp2457
(dp2458
g18
g0
(g19
g20
(dp2459
g22
Nsg24
Nsg25
Nsg26
Nsg27
Nsg31
Nsg29
Nsg30
Nsg33
Nsg32
Nsg34
Nsg35
I01
sg28
Nsg36
Nsg37
Nsg38
Nsg39
Nstp2460
Rp2461
sbg454
sg13
(S'z8083'
p2462
tp2463
Rp2464
(dp2465
g18
g0
(g19
g20
(dp2466
g22
Nsg24
Nsg25
Nsg26
Nsg27
Nsg31
Nsg29
Nsg30
Nsg33
Nsg32
Nsg34
Nsg35
I01
sg28
Nsg36
Nsg37
Nsg38
Nsg39
Nstp2467
Rp2468
sbg454
sg13
(S'z5355'
p2469
tp2470
Rp2471
(dp2472
g18
g0
(g19
g20
(dp2473
g50
Nsg34
Nsg35
I01
sg52
Nsg26
Nsg36
Nsg37
Nsg38
Nsg53
Nsg28
Nsg54
Nsg56
Nsg27
Nsg55
Nsg51
Nstp2474
Rp2475
sbg454
sg13
(S'z7984'
p2476
tp2477
Rp2478
(dp2479
g18
g0
(g19
g20
(dp2480
g50
Nsg34
Nsg35
I01
sg52
Nsg26
Nsg36
Nsg37
Nsg38
Nsg53
Nsg28
Nsg54
Nsg56
Nsg27
Nsg55
Nsg51
Nstp2481
Rp2482
sbg454
sg13
(S'z3641'
p2483
tp2484
Rp2485
(dp2486
g18
g0
(g19
g20
(dp2487
g50
Nsg34
Nsg35
I01
sg52
Nsg26
Nsg36
Nsg37
Nsg38
Nsg53
Nsg28
Nsg54
Nsg56
Nsg27
Nsg55
Nsg51
Nstp2488
Rp2489
sbg454
sg13
(S'z7074'
p2490
tp2491
Rp2492
(dp2493
g18
g0
(g19
g20
(dp2494
g34
Nsg22
Nsg35
I01
sg25
Nsg26
Nsg36
Nsg37
Nsg38
Nsg31
Nsg28
Nsg29
Nsg39
Nsg27
Nsg33
Nsg24
Nstp2495
Rp2496
sbg454
sg13
(S'z8183'
p2497
tp2498
Rp2499
(dp2500
g18
g0
(g19
g20
(dp2501
g50
Nsg34
Nsg51
Nsg52
Nsg26
Nsg36
Nsg37
Nsg38
Nsg53
Nsg28
Nsg54
Nsg56
Nsg27
Nsg55
Nsg35
I01
stp2502
Rp2503
sbg454
sg13
(S'z5154'
p2504
tp2505
Rp2506
(dp2507
g18
g0
(g19
g20
(dp2508
g22
Nsg24
Nsg25
Nsg26
Nsg27
Nsg31
Nsg29
Nsg30
Nsg33
Nsg32
Nsg34
Nsg35
I01
sg28
Nsg36
Nsg37
Nsg38
Nsg39
Nstp2509
Rp2510
sbg454
sg13
(S'z8589'
p2511
tp2512
Rp2513
(dp2514
g18
g0
(g19
g20
(dp2515
g34
Nsg22
Nsg35
I01
sg25
Nsg26
Nsg36
Nsg37
Nsg38
Nsg31
Nsg28
Nsg29
Nsg39
Nsg27
Nsg33
Nsg24
Nstp2516
Rp2517
sbg454
sg13
(S'z7075'
p2518
tp2519
Rp2520
(dp2521
g18
g0
(g19
g20
(dp2522
g34
Nsg22
Nsg35
I01
sg26
Nsg36
Nsg37
Nsg38
Nsg28
Nsg27
Nstp2523
Rp2524
sbg454
sg13
(S'z8388'
p2525
tp2526
Rp2527
(dp2528
g18
g0
(g19
g20
(dp2529
g50
Nsg34
Nsg51
Nsg52
Nsg26
Nsg36
Nsg37
Nsg38
Nsg53
Nsg28
Nsg54
Nsg56
Nsg27
Nsg55
Nsg35
I01
stp2530
Rp2531
sbg454
sg121
g7
(g448
g8
(csympy.core.numbers
NegativeOne
p2532
(tRp2533
(dp2534
bg16
tp2535
Rp2536
(dp2537
btp2538
Rp2539
(dp2540
bsg13
(S'z2426'
p2541
tp2542
Rp2543
(dp2544
g18
g0
(g19
g20
(dp2545
g50
Nsg51
Nsg52
Nsg26
Nsg27
Nsg53
Nsg54
Nsg30
Nsg55
Nsg32
Nsg34
Nsg35
I01
sg28
Nsg36
Nsg37
Nsg38
Nsg56
Nstp2546
Rp2547
sbg454
sg13
(S'z6975'
p2548
tp2549
Rp2550
(dp2551
g18
g0
(g19
g20
(dp2552
g50
Nsg34
Nsg35
I01
sg52
Nsg26
Nsg36
Nsg37
Nsg38
Nsg53
Nsg28
Nsg54
Nsg56
Nsg27
Nsg55
Nsg51
Nstp2553
Rp2554
sbg454
sg13
(S'z4146'
p2555
tp2556
Rp2557
(dp2558
g18
g0
(g19
g20
(dp2559
g50
Nsg51
Nsg52
Nsg26
Nsg27
Nsg37
Nsg53
Nsg29
Nsg137
Nsg55
Nsg138
Nsg34
Nsg35
I01
sg36
Nsg28
Nsg38
Nsg56
Nstp2560
Rp2561
sbg454
sg13
(S'p46'
p2562
tp2563
Rp2564
(dp2565
g18
g0
(g19
g20
(dp2566
g34
Nsg22
Nsg35
I01
sg25
Nsg26
Nsg36
Nsg37
Nsg38
Nsg31
Nsg28
Nsg29
Nsg39
Nsg27
Nsg33
Nsg24
Nstp2567
Rp2568
sbg454
sg13
(S'z1114'
p2569
tp2570
Rp2571
(dp2572
g18
g0
(g19
g20
(dp2573
g34
Nsg22
Nsg35
I01
sg25
Nsg26
Nsg36
Nsg37
Nsg38
Nsg31
Nsg28
Nsg29
Nsg39
Nsg27
Nsg33
Nsg24
Nstp2574
Rp2575
sbg454
sg13
(S'z2226'
p2576
tp2577
Rp2578
(dp2579
g18
g0
(g19
g20
(dp2580
g50
Nsg51
Nsg52
Nsg26
Nsg27
Nsg53
Nsg54
Nsg30
Nsg55
Nsg32
Nsg34
Nsg35
I01
sg28
Nsg36
Nsg37
Nsg38
Nsg56
Nstp2581
Rp2582
sbg454
sg13
(S'z99101'
p2583
tp2584
Rp2585
(dp2586
g18
g0
(g19
g20
(dp2587
g50
Nsg34
Nsg35
I01
sg52
Nsg26
Nsg36
Nsg37
Nsg38
Nsg53
Nsg28
Nsg54
Nsg56
Nsg27
Nsg55
Nsg51
Nstp2588
Rp2589
sbg454
sg13
(S'z3740'
p2590
tp2591
Rp2592
(dp2593
g18
g0
(g19
g20
(dp2594
g34
Nsg22
Nsg35
I01
sg25
Nsg26
Nsg36
Nsg37
Nsg38
Nsg31
Nsg28
Nsg29
Nsg39
Nsg27
Nsg33
Nsg24
Nstp2595
Rp2596
sbg454
sg13
(S'p41'
p2597
tp2598
Rp2599
(dp2600
g18
g0
(g19
g20
(dp2601
g34
Nsg22
Nsg35
I01
sg25
Nsg26
Nsg36
Nsg37
Nsg38
Nsg31
Nsg28
Nsg29
Nsg39
Nsg27
Nsg33
Nsg24
Nstp2602
Rp2603
sbg454
sg13
(S'z4347'
p2604
tp2605
Rp2606
(dp2607
g18
g0
(g19
g20
(dp2608
g50
Nsg34
Nsg35
I01
sg52
Nsg26
Nsg36
Nsg37
Nsg38
Nsg53
Nsg28
Nsg54
Nsg56
Nsg27
Nsg55
Nsg51
Nstp2609
Rp2610
sbg454
sg13
(S'z8385'
p2611
tp2612
Rp2613
(dp2614
g18
g0
(g19
g20
(dp2615
g34
Nsg22
Nsg35
I01
sg25
Nsg26
Nsg36
Nsg37
Nsg38
Nsg31
Nsg28
Nsg29
Nsg39
Nsg27
Nsg33
Nsg24
Nstp2616
Rp2617
sbg454
sg13
(S'p1'
p2618
tp2619
Rp2620
(dp2621
g18
g0
(g19
g20
(dp2622
g34
Nsg50
Nsg35
I01
sg52
Nsg26
Nsg36
Nsg37
Nsg38
Nsg53
Nsg28
Nsg54
Nsg56
Nsg27
Nsg55
Nsg51
Nstp2623
Rp2624
sbg201
sg13
(S'z4346'
p2625
tp2626
Rp2627
(dp2628
g18
g0
(g19
g20
(dp2629
g34
Nsg22
Nsg35
I01
sg25
Nsg26
Nsg36
Nsg37
Nsg38
Nsg31
Nsg28
Nsg29
Nsg39
Nsg27
Nsg33
Nsg24
Nstp2630
Rp2631
sbg454
sg13
(S'z9293'
p2632
tp2633
Rp2634
(dp2635
g18
g0
(g19
g20
(dp2636
g34
Nsg22
Nsg35
I01
sg25
Nsg26
Nsg36
Nsg37
Nsg38
Nsg31
Nsg28
Nsg29
Nsg39
Nsg27
Nsg33
Nsg24
Nstp2637
Rp2638
sbg454
sg13
(S'z7882'
p2639
tp2640
Rp2641
(dp2642
g18
g0
(g19
g20
(dp2643
g50
Nsg34
Nsg35
I01
sg52
Nsg26
Nsg36
Nsg37
Nsg38
Nsg53
Nsg28
Nsg54
Nsg56
Nsg27
Nsg55
Nsg51
Nstp2644
Rp2645
sbg454
sg13
(S'z8590'
p2646
tp2647
Rp2648
(dp2649
g18
g0
(g19
g20
(dp2650
g50
Nsg34
Nsg51
Nsg52
Nsg26
Nsg36
Nsg37
Nsg38
Nsg53
Nsg28
Nsg54
Nsg56
Nsg27
Nsg55
Nsg35
I01
stp2651
Rp2652
sbg454
sg13
(S'z7879'
p2653
tp2654
Rp2655
(dp2656
g18
g0
(g19
g20
(dp2657
g50
Nsg51
Nsg52
Nsg26
Nsg27
Nsg53
Nsg54
Nsg30
Nsg55
Nsg32
Nsg34
Nsg35
I01
sg28
Nsg36
Nsg37
Nsg38
Nsg56
Nstp2658
Rp2659
sbg454
sg13
(S'q43'
p2660
tp2661
Rp2662
(dp2663
g18
g0
(g19
g20
(dp2664
g34
Nsg22
Nsg35
I01
sg26
Nsg36
Nsg37
Nsg38
Nsg28
Nsg27
Nstp2665
Rp2666
sbg454
sg13
(S'z5559'
p2667
tp2668
Rp2669
(dp2670
g18
g0
(g19
g20
(dp2671
g50
Nsg34
Nsg35
I01
sg52
Nsg26
Nsg36
Nsg37
Nsg38
Nsg53
Nsg28
Nsg54
Nsg56
Nsg27
Nsg55
Nsg51
Nstp2672
Rp2673
sbg454
sg13
(S'z3842'
p2674
tp2675
Rp2676
(dp2677
g18
g0
(g19
g20
(dp2678
g50
Nsg34
Nsg35
I01
sg52
Nsg26
Nsg36
Nsg37
Nsg38
Nsg53
Nsg28
Nsg54
Nsg56
Nsg27
Nsg55
Nsg51
Nstp2679
Rp2680
sbg454
sg13
(S'z5460'
p2681
tp2682
Rp2683
(dp2684
g18
g0
(g19
g20
(dp2685
g50
Nsg34
Nsg35
I01
sg52
Nsg26
Nsg36
Nsg37
Nsg38
Nsg53
Nsg28
Nsg54
Nsg56
Nsg27
Nsg55
Nsg51
Nstp2686
Rp2687
sbg454
sg13
(S'z5354'
p2688
tp2689
Rp2690
(dp2691
g18
g0
(g19
g20
(dp2692
g50
Nsg51
Nsg52
Nsg26
Nsg27
Nsg53
Nsg54
Nsg30
Nsg55
Nsg32
Nsg34
Nsg35
I01
sg28
Nsg36
Nsg37
Nsg38
Nsg56
Nstp2693
Rp2694
sbg454
sg13
(S'q17'
p2695
tp2696
Rp2697
(dp2698
g18
g0
(g19
g20
(dp2699
g34
Nsg22
Nsg35
I01
sg25
Nsg26
Nsg36
Nsg37
Nsg38
Nsg31
Nsg28
Nsg29
Nsg39
Nsg27
Nsg33
Nsg24
Nstp2700
Rp2701
sbg454
sg13
(S'z5863'
p2702
tp2703
Rp2704
(dp2705
g18
g0
(g19
g20
(dp2706
g50
Nsg34
Nsg35
I01
sg52
Nsg26
Nsg36
Nsg37
Nsg38
Nsg53
Nsg28
Nsg54
Nsg56
Nsg27
Nsg55
Nsg51
Nstp2707
Rp2708
sbg454
sg13
(S'z6367'
p2709
tp2710
Rp2711
(dp2712
g18
g0
(g19
g20
(dp2713
g50
Nsg34
Nsg35
I01
sg52
Nsg26
Nsg36
Nsg37
Nsg38
Nsg53
Nsg28
Nsg54
Nsg56
Nsg27
Nsg55
Nsg51
Nstp2714
Rp2715
sbg454
sg13
(S'z3943'
p2716
tp2717
Rp2718
(dp2719
g18
g0
(g19
g20
(dp2720
g34
Nsg22
Nsg35
I01
sg25
Nsg26
Nsg36
Nsg37
Nsg38
Nsg31
Nsg28
Nsg29
Nsg39
Nsg27
Nsg33
Nsg24
Nstp2721
Rp2722
sbg454
sg13
(S'z3538'
p2723
tp2724
Rp2725
(dp2726
g18
g0
(g19
g20
(dp2727
g50
Nsg34
Nsg35
I01
sg52
Nsg26
Nsg36
Nsg37
Nsg38
Nsg53
Nsg28
Nsg54
Nsg56
Nsg27
Nsg55
Nsg51
Nstp2728
Rp2729
sbg454
sg13
(S'z5864'
p2730
tp2731
Rp2732
(dp2733
g18
g0
(g19
g20
(dp2734
g50
Nsg34
Nsg35
I01
sg52
Nsg26
Nsg36
Nsg37
Nsg38
Nsg53
Nsg28
Nsg54
Nsg56
Nsg27
Nsg55
Nsg51
Nstp2735
Rp2736
sbg454
sg13
(S'z7680'
p2737
tp2738
Rp2739
(dp2740
g18
g0
(g19
g20
(dp2741
g50
Nsg34
Nsg51
Nsg52
Nsg26
Nsg36
Nsg37
Nsg38
Nsg53
Nsg28
Nsg54
Nsg56
Nsg27
Nsg55
Nsg35
I01
stp2742
Rp2743
sbg454
sg13
(S'p48'
p2744
tp2745
Rp2746
(dp2747
g18
g0
(g19
g20
(dp2748
g34
Nsg22
Nsg35
I01
sg25
Nsg26
Nsg36
Nsg37
Nsg38
Nsg31
Nsg28
Nsg29
Nsg39
Nsg27
Nsg33
Nsg24
Nstp2749
Rp2750
sbg454
sg13
(S'z6870'
p2751
tp2752
Rp2753
(dp2754
g18
g0
(g19
g20
(dp2755
g50
Nsg51
Nsg52
Nsg26
Nsg27
Nsg53
Nsg54
Nsg30
Nsg55
Nsg32
Nsg34
Nsg35
I01
sg28
Nsg36
Nsg37
Nsg38
Nsg56
Nstp2756
Rp2757
sbg454
sg13
(S'z9195'
p2758
tp2759
Rp2760
(dp2761
g18
g0
(g19
g20
(dp2762
g50
Nsg34
Nsg51
Nsg52
Nsg26
Nsg36
Nsg37
Nsg38
Nsg53
Nsg28
Nsg54
Nsg56
Nsg27
Nsg55
Nsg35
I01
stp2763
Rp2764
sbg454
sg13
(S'z3941'
p2765
tp2766
Rp2767
(dp2768
g18
g0
(g19
g20
(dp2769
g34
Nsg22
Nsg35
I01
sg25
Nsg26
Nsg36
Nsg37
Nsg38
Nsg31
Nsg28
Nsg29
Nsg39
Nsg27
Nsg33
Nsg24
Nstp2770
Rp2771
sbg454
sg13
(S'p3'
p2772
tp2773
Rp2774
(dp2775
g18
g0
(g19
g20
(dp2776
g22
Nsg24
Nsg25
Nsg26
Nsg27
Nsg31
Nsg29
Nsg30
Nsg33
Nsg32
Nsg34
Nsg35
I01
sg28
Nsg36
Nsg37
Nsg38
Nsg39
Nstp2777
Rp2778
sbg454
sg13
(S'q37'
p2779
tp2780
Rp2781
(dp2782
g18
g0
(g19
g20
(dp2783
g22
Nsg24
Nsg25
Nsg26
Nsg27
Nsg28
Nsg30
Nsg31
Nsg32
Nsg33
Nsg34
Nsg35
I01
sg36
Nsg37
Nsg38
Nsg39
Nstp2784
Rp2785
sbg454
sg13
(S'z1823'
p2786
tp2787
Rp2788
(dp2789
g18
g0
(g19
g20
(dp2790
g50
Nsg34
Nsg35
I01
sg52
Nsg26
Nsg36
Nsg37
Nsg38
Nsg53
Nsg28
Nsg54
Nsg56
Nsg27
Nsg55
Nsg51
Nstp2791
Rp2792
sbg454
sg13
(S'z6065'
p2793
tp2794
Rp2795
(dp2796
g18
g0
(g19
g20
(dp2797
g50
Nsg34
Nsg35
I01
sg52
Nsg26
Nsg36
Nsg37
Nsg38
Nsg53
Nsg28
Nsg54
Nsg56
Nsg27
Nsg55
Nsg51
Nstp2798
Rp2799
sbg454
sg13
(S'q45'
p2800
tp2801
Rp2802
(dp2803
g18
g0
(g19
g20
(dp2804
g34
Nsg22
Nsg35
I01
sg26
Nsg36
Nsg37
Nsg38
Nsg28
Nsg27
Nstp2805
Rp2806
sbg454
sg13
(S'z6466'
p2807
tp2808
Rp2809
(dp2810
g18
g0
(g19
g20
(dp2811
g50
Nsg34
Nsg35
I01
sg52
Nsg26
Nsg36
Nsg37
Nsg38
Nsg53
Nsg28
Nsg54
Nsg56
Nsg27
Nsg55
Nsg51
Nstp2812
Rp2813
sbg454
sg13
(S'z3337'
p2814
tp2815
Rp2816
(dp2817
g18
g0
(g19
g20
(dp2818
g34
Nsg22
Nsg35
I01
sg25
Nsg26
Nsg36
Nsg37
Nsg38
Nsg31
Nsg28
Nsg29
Nsg39
Nsg27
Nsg33
Nsg24
Nstp2819
Rp2820
sbg454
sg13
(S'p16'
p2821
tp2822
Rp2823
(dp2824
g18
g0
(g19
g20
(dp2825
g22
Nsg24
Nsg25
Nsg26
Nsg27
Nsg31
Nsg29
Nsg30
Nsg33
Nsg32
Nsg34
Nsg35
I01
sg28
Nsg36
Nsg37
Nsg38
Nsg39
Nstp2826
Rp2827
sbg454
sg13
(S'z6365'
p2828
tp2829
Rp2830
(dp2831
g18
g0
(g19
g20
(dp2832
g50
Nsg51
Nsg52
Nsg26
Nsg27
Nsg37
Nsg53
Nsg29
Nsg137
Nsg55
Nsg138
Nsg34
Nsg35
I01
sg36
Nsg28
Nsg38
Nsg56
Nstp2833
Rp2834
sbg454
sg13
(S'z2429'
p2835
tp2836
Rp2837
(dp2838
g18
g0
(g19
g20
(dp2839
g50
Nsg34
Nsg35
I01
sg52
Nsg26
Nsg36
Nsg37
Nsg38
Nsg53
Nsg28
Nsg54
Nsg56
Nsg27
Nsg55
Nsg51
Nstp2840
Rp2841
sbg454
sg13
(S'z4447'
p2842
tp2843
Rp2844
(dp2845
g18
g0
(g19
g20
(dp2846
g50
Nsg34
Nsg35
I01
sg52
Nsg26
Nsg36
Nsg37
Nsg38
Nsg53
Nsg28
Nsg54
Nsg56
Nsg27
Nsg55
Nsg51
Nstp2847
Rp2848
sbg454
sg13
(S'p40'
p2849
tp2850
Rp2851
(dp2852
g18
g0
(g19
g20
(dp2853
g34
Nsg22
Nsg35
I01
sg25
Nsg26
Nsg36
Nsg37
Nsg38
Nsg31
Nsg28
Nsg29
Nsg39
Nsg27
Nsg33
Nsg24
Nstp2854
Rp2855
sbg454
sg13
(S'z4450'
p2856
tp2857
Rp2858
(dp2859
g18
g0
(g19
g20
(dp2860
g50
Nsg34
Nsg35
I01
sg52
Nsg26
Nsg36
Nsg37
Nsg38
Nsg53
Nsg28
Nsg54
Nsg56
Nsg27
Nsg55
Nsg51
Nstp2861
Rp2862
sbg454
sg13
(S'z7577'
p2863
tp2864
Rp2865
(dp2866
g18
g0
(g19
g20
(dp2867
g22
Nsg24
Nsg25
Nsg26
Nsg27
Nsg31
Nsg29
Nsg30
Nsg33
Nsg32
Nsg34
Nsg35
I01
sg28
Nsg36
Nsg37
Nsg38
Nsg39
Nstp2868
Rp2869
sbg454
sg13
(S'z5763'
p2870
tp2871
Rp2872
(dp2873
g18
g0
(g19
g20
(dp2874
g50
Nsg34
Nsg35
I01
sg52
Nsg26
Nsg36
Nsg37
Nsg38
Nsg53
Nsg28
Nsg54
Nsg56
Nsg27
Nsg55
Nsg51
Nstp2875
Rp2876
sbg454
sg13
(S'z811'
p2877
tp2878
Rp2879
(dp2880
g18
g0
(g19
g20
(dp2881
g50
Nsg51
Nsg52
Nsg26
Nsg27
Nsg37
Nsg28
Nsg54
Nsg137
Nsg55
Nsg138
Nsg34
Nsg35
I01
sg36
Nsg53
Nsg38
Nsg56
Nstp2882
Rp2883
sbg454
sg13
(S'z5661'
p2884
tp2885
Rp2886
(dp2887
g18
g0
(g19
g20
(dp2888
g34
Nsg22
Nsg35
I01
sg25
Nsg26
Nsg36
Nsg37
Nsg38
Nsg31
Nsg28
Nsg29
Nsg39
Nsg27
Nsg33
Nsg24
Nstp2889
Rp2890
sbg454
sg13
(S'z6671'
p2891
tp2892
Rp2893
(dp2894
g18
g0
(g19
g20
(dp2895
g50
Nsg34
Nsg51
Nsg52
Nsg26
Nsg36
Nsg37
Nsg38
Nsg53
Nsg28
Nsg54
Nsg56
Nsg27
Nsg55
Nsg35
I01
stp2896
Rp2897
sbg454
sg13
(S'z6772'
p2898
tp2899
Rp2900
(dp2901
g18
g0
(g19
g20
(dp2902
g50
Nsg51
Nsg52
Nsg26
Nsg27
Nsg37
Nsg53
Nsg29
Nsg137
Nsg55
Nsg138
Nsg34
Nsg35
I01
sg36
Nsg28
Nsg38
Nsg56
Nstp2903
Rp2904
sbg454
sg13
(S'z4445'
p2905
tp2906
Rp2907
(dp2908
g18
g0
(g19
g20
(dp2909
g50
Nsg51
Nsg52
Nsg26
Nsg27
Nsg53
Nsg54
Nsg30
Nsg55
Nsg32
Nsg34
Nsg35
I01
sg28
Nsg36
Nsg37
Nsg38
Nsg56
Nstp2910
Rp2911
sbg454
sg13
(S'z2122'
p2912
tp2913
Rp2914
(dp2915
g18
g0
(g19
g20
(dp2916
g50
Nsg51
Nsg52
Nsg26
Nsg27
Nsg37
Nsg28
Nsg54
Nsg137
Nsg55
Nsg138
Nsg34
Nsg35
I01
sg36
Nsg53
Nsg38
Nsg56
Nstp2917
Rp2918
sbg454
sg13
(S'z6773'
p2919
tp2920
Rp2921
(dp2922
g18
g0
(g19
g20
(dp2923
g50
Nsg34
Nsg35
I01
sg52
Nsg26
Nsg36
Nsg37
Nsg38
Nsg53
Nsg28
Nsg54
Nsg56
Nsg27
Nsg55
Nsg51
Nstp2924
Rp2925
sbg454
sg13
(S'z8082'
p2926
tp2927
Rp2928
(dp2929
g18
g0
(g19
g20
(dp2930
g34
Nsg22
Nsg35
I01
sg25
Nsg26
Nsg36
Nsg37
Nsg38
Nsg31
Nsg28
Nsg29
Nsg39
Nsg27
Nsg33
Nsg24
Nstp2931
Rp2932
sbg454
sg13
(S'p18'
p2933
tp2934
Rp2935
(dp2936
g18
g0
(g19
g20
(dp2937
g34
Nsg22
Nsg35
I01
sg25
Nsg26
Nsg36
Nsg37
Nsg38
Nsg31
Nsg28
Nsg29
Nsg39
Nsg27
Nsg33
Nsg24
Nstp2938
Rp2939
sbg454
sg13
(S'z7274'
p2940
tp2941
Rp2942
(dp2943
g18
g0
(g19
g20
(dp2944
g50
Nsg51
Nsg52
Nsg26
Nsg27
Nsg53
Nsg54
Nsg30
Nsg55
Nsg32
Nsg34
Nsg35
I01
sg28
Nsg36
Nsg37
Nsg38
Nsg56
Nstp2945
Rp2946
sbg454
sg13
(S'z7679'
p2947
tp2948
Rp2949
(dp2950
g18
g0
(g19
g20
(dp2951
g50
Nsg51
Nsg52
Nsg26
Nsg27
Nsg37
Nsg28
Nsg54
Nsg137
Nsg55
Nsg138
Nsg34
Nsg35
I01
sg36
Nsg53
Nsg38
Nsg56
Nstp2952
Rp2953
sbg454
sg13
(S'z5153'
p2954
tp2955
Rp2956
(dp2957
g18
g0
(g19
g20
(dp2958
g34
Nsg22
Nsg35
I01
sg25
Nsg26
Nsg36
Nsg37
Nsg38
Nsg31
Nsg28
Nsg29
Nsg39
Nsg27
Nsg33
Nsg24
Nstp2959
Rp2960
sbg454
sg13
(S'z5459'
p2961
tp2962
Rp2963
(dp2964
g18
g0
(g19
g20
(dp2965
g34
Nsg22
Nsg35
I01
sg25
Nsg26
Nsg36
Nsg37
Nsg38
Nsg31
Nsg28
Nsg29
Nsg39
Nsg27
Nsg33
Nsg24
Nstp2966
Rp2967
sbg454
sg13
(S'p35'
p2968
tp2969
Rp2970
(dp2971
g18
g0
(g19
g20
(dp2972
g22
Nsg24
Nsg25
Nsg26
Nsg27
Nsg31
Nsg29
Nsg30
Nsg33
Nsg32
Nsg34
Nsg35
I01
sg28
Nsg36
Nsg37
Nsg38
Nsg39
Nstp2973
Rp2974
sbg454
sg13
(S'z7275'
p2975
tp2976
Rp2977
(dp2978
g18
g0
(g19
g20
(dp2979
g34
Nsg22
Nsg35
I01
sg25
Nsg26
Nsg36
Nsg37
Nsg38
Nsg31
Nsg28
Nsg29
Nsg39
Nsg27
Nsg33
Nsg24
Nstp2980
Rp2981
sbg454
sg13
(S'z5557'
p2982
tp2983
Rp2984
(dp2985
g18
g0
(g19
g20
(dp2986
g50
Nsg34
Nsg35
I01
sg52
Nsg26
Nsg36
Nsg37
Nsg38
Nsg53
Nsg28
Nsg54
Nsg56
Nsg27
Nsg55
Nsg51
Nstp2987
Rp2988
sbg454
sg13
(S'z4950'
p2989
tp2990
Rp2991
(dp2992
g18
g0
(g19
g20
(dp2993
g50
Nsg51
Nsg52
Nsg26
Nsg27
Nsg53
Nsg54
Nsg30
Nsg55
Nsg34
Nsg35
I01
sg28
Nsg36
Nsg37
Nsg38
Nsg56
Nstp2994
Rp2995
sbg454
sg13
(S'z912'
p2996
tp2997
Rp2998
(dp2999
g18
g0
(g19
g20
(dp3000
g50
Nsg34
Nsg35
I01
sg52
Nsg26
Nsg36
Nsg37
Nsg38
Nsg53
Nsg28
Nsg54
Nsg56
Nsg27
Nsg55
Nsg51
Nstp3001
Rp3002
sbg454
sg13
(S'p43'
p3003
tp3004
Rp3005
(dp3006
g18
g0
(g19
g20
(dp3007
g34
Nsg22
Nsg35
I01
sg25
Nsg26
Nsg36
Nsg37
Nsg38
Nsg31
Nsg28
Nsg29
Nsg39
Nsg27
Nsg33
Nsg24
Nstp3008
Rp3009
sbg454
sg13
(S'q8'
p3010
tp3011
Rp3012
(dp3013
g18
g0
(g19
g20
(dp3014
g34
Nsg22
Nsg35
I01
sg25
Nsg26
Nsg36
Nsg37
Nsg38
Nsg31
Nsg28
Nsg29
Nsg39
Nsg27
Nsg33
Nsg24
Nstp3015
Rp3016
sbg454
sg13
(S'z3738'
p3017
tp3018
Rp3019
(dp3020
g18
g0
(g19
g20
(dp3021
g34
Nsg22
Nsg35
I01
sg25
Nsg26
Nsg36
Nsg37
Nsg38
Nsg31
Nsg28
Nsg29
Nsg39
Nsg27
Nsg33
Nsg24
Nstp3022
Rp3023
sbg454
sg13
(S'z8688'
p3024
tp3025
Rp3026
(dp3027
g18
g0
(g19
g20
(dp3028
g50
Nsg34
Nsg35
I01
sg52
Nsg26
Nsg36
Nsg37
Nsg38
Nsg53
Nsg28
Nsg54
Nsg56
Nsg27
Nsg55
Nsg51
Nstp3029
Rp3030
sbg454
sg13
(S'z6164'
p3031
tp3032
Rp3033
(dp3034
g18
g0
(g19
g20
(dp3035
g34
Nsg22
Nsg35
I01
sg25
Nsg26
Nsg36
Nsg37
Nsg38
Nsg31
Nsg28
Nsg29
Nsg39
Nsg27
Nsg33
Nsg24
Nstp3036
Rp3037
sbg454
sg13
(S'z3540'
p3038
tp3039
Rp3040
(dp3041
g18
g0
(g19
g20
(dp3042
g34
Nsg22
Nsg35
I01
sg25
Nsg26
Nsg36
Nsg37
Nsg38
Nsg31
Nsg28
Nsg29
Nsg39
Nsg27
Nsg33
Nsg24
Nstp3043
Rp3044
sbg454
sg13
(S'z6266'
p3045
tp3046
Rp3047
(dp3048
g18
g0
(g19
g20
(dp3049
g34
Nsg22
Nsg35
I01
sg25
Nsg26
Nsg36
Nsg37
Nsg38
Nsg31
Nsg28
Nsg29
Nsg39
Nsg27
Nsg33
Nsg24
Nstp3050
Rp3051
sbg454
sg13
(S'z3336'
p3052
tp3053
Rp3054
(dp3055
g18
g0
(g19
g20
(dp3056
g34
Nsg22
Nsg35
I01
sg25
Nsg26
Nsg36
Nsg37
Nsg38
Nsg31
Nsg28
Nsg29
Nsg39
Nsg27
Nsg33
Nsg24
Nstp3057
Rp3058
sbg454
sg13
(S'z8286'
p3059
tp3060
Rp3061
(dp3062
g18
g0
(g19
g20
(dp3063
g34
Nsg22
Nsg35
I01
sg25
Nsg26
Nsg36
Nsg37
Nsg38
Nsg31
Nsg28
Nsg29
Nsg39
Nsg27
Nsg33
Nsg24
Nstp3064
Rp3065
sbg454
sg13
(S'z4348'
p3066
tp3067
Rp3068
(dp3069
g18
g0
(g19
g20
(dp3070
g50
Nsg34
Nsg35
I01
sg52
Nsg26
Nsg36
Nsg37
Nsg38
Nsg53
Nsg28
Nsg54
Nsg56
Nsg27
Nsg55
Nsg51
Nstp3071
Rp3072
sbg454
sg13
(S'z2833'
p3073
tp3074
Rp3075
(dp3076
g18
g0
(g19
g20
(dp3077
g34
Nsg22
Nsg35
I01
sg26
Nsg36
Nsg37
Nsg38
Nsg28
Nsg27
Nstp3078
Rp3079
sbg454
sg13
(S'z6062'
p3080
tp3081
Rp3082
(dp3083
g18
g0
(g19
g20
(dp3084
g50
Nsg34
Nsg35
I01
sg52
Nsg26
Nsg36
Nsg37
Nsg38
Nsg53
Nsg28
Nsg54
Nsg56
Nsg27
Nsg55
Nsg51
Nstp3085
Rp3086
sbg454
sg13
(S'z8489'
p3087
tp3088
Rp3089
(dp3090
g18
g0
(g19
g20
(dp3091
g50
Nsg34
Nsg35
I01
sg52
Nsg26
Nsg36
Nsg37
Nsg38
Nsg53
Nsg28
Nsg54
Nsg56
Nsg27
Nsg55
Nsg51
Nstp3092
Rp3093
sbg454
sg13
(S'z56'
p3094
tp3095
Rp3096
(dp3097
g18
g0
(g19
g20
(dp3098
g50
Nsg34
Nsg35
I01
sg52
Nsg26
Nsg36
Nsg37
Nsg38
Nsg53
Nsg28
Nsg54
Nsg56
Nsg27
Nsg55
Nsg51
Nstp3099
Rp3100
sbg7
(g201
g8
(g2533
g421
tp3101
Rp3102
(dp3103
btp3104
Rp3105
(dp3106
bsg13
(S'p20'
p3107
tp3108
Rp3109
(dp3110
g18
g0
(g19
g20
(dp3111
g50
Nsg51
Nsg52
Nsg26
Nsg27
Nsg53
Nsg54
Nsg30
Nsg55
Nsg32
Nsg34
Nsg35
I01
sg28
Nsg36
Nsg37
Nsg38
Nsg56
Nstp3112
Rp3113
sbg454
sg13
(S'z1923'
p3114
tp3115
Rp3116
(dp3117
g18
g0
(g19
g20
(dp3118
g50
Nsg34
Nsg35
I01
sg52
Nsg26
Nsg36
Nsg37
Nsg38
Nsg53
Nsg28
Nsg54
Nsg56
Nsg27
Nsg55
Nsg51
Nstp3119
Rp3120
sbg454
sg13
(S'z6264'
p3121
tp3122
Rp3123
(dp3124
g18
g0
(g19
g20
(dp3125
g34
Nsg22
Nsg35
I01
sg25
Nsg26
Nsg36
Nsg37
Nsg38
Nsg31
Nsg28
Nsg29
Nsg39
Nsg27
Nsg33
Nsg24
Nstp3126
Rp3127
sbg454
sg13
(S'q18'
p3128
tp3129
Rp3130
(dp3131
g18
g0
(g19
g20
(dp3132
g22
Nsg24
Nsg25
Nsg26
Nsg27
Nsg31
Nsg29
Nsg30
Nsg33
Nsg32
Nsg34
Nsg35
I01
sg28
Nsg36
Nsg37
Nsg38
Nsg39
Nstp3133
Rp3134
sbg454
sg13
(S'z9396'
p3135
tp3136
Rp3137
(dp3138
g18
g0
(g19
g20
(dp3139
g22
Nsg24
Nsg25
Nsg26
Nsg27
Nsg31
Nsg29
Nsg30
Nsg33
Nsg32
Nsg34
Nsg35
I01
sg28
Nsg36
Nsg37
Nsg38
Nsg39
Nstp3140
Rp3141
sbg454
sg13
(S'z8185'
p3142
tp3143
Rp3144
(dp3145
g18
g0
(g19
g20
(dp3146
g50
Nsg34
Nsg35
I01
sg52
Nsg26
Nsg36
Nsg37
Nsg38
Nsg53
Nsg28
Nsg54
Nsg56
Nsg27
Nsg55
Nsg51
Nstp3147
Rp3148
sbg454
sg13
(S'z6265'
p3149
tp3150
Rp3151
(dp3152
g18
g0
(g19
g20
(dp3153
g34
Nsg22
Nsg35
I01
sg25
Nsg26
Nsg36
Nsg37
Nsg38
Nsg31
Nsg28
Nsg29
Nsg39
Nsg27
Nsg33
Nsg24
Nstp3154
Rp3155
sbg454
sg13
(S'z7478'
p3156
tp3157
Rp3158
(dp3159
g18
g0
(g19
g20
(dp3160
g34
Nsg22
Nsg35
I01
sg25
Nsg26
Nsg36
Nsg37
Nsg38
Nsg31
Nsg28
Nsg29
Nsg39
Nsg27
Nsg33
Nsg24
Nstp3161
Rp3162
sbg454
sg13
(S'z5759'
p3163
tp3164
Rp3165
(dp3166
g18
g0
(g19
g20
(dp3167
g34
Nsg22
Nsg35
I01
sg25
Nsg26
Nsg36
Nsg37
Nsg38
Nsg31
Nsg28
Nsg29
Nsg39
Nsg27
Nsg33
Nsg24
Nstp3168
Rp3169
sbg454
sg13
(S'z3638'
p3170
tp3171
Rp3172
(dp3173
g18
g0
(g19
g20
(dp3174
g22
Nsg24
Nsg25
Nsg26
Nsg27
Nsg31
Nsg29
Nsg30
Nsg33
Nsg32
Nsg34
Nsg35
I01
sg28
Nsg36
Nsg37
Nsg38
Nsg39
Nstp3175
Rp3176
sbg454
sg13
(S'z100101'
p3177
tp3178
Rp3179
(dp3180
g18
g0
(g19
g20
(dp3181
g50
Nsg51
Nsg52
Nsg26
Nsg27
Nsg37
Nsg28
Nsg54
Nsg137
Nsg55
Nsg138
Nsg34
Nsg35
I01
sg36
Nsg53
Nsg38
Nsg56
Nstp3182
Rp3183
sbg454
sg13
(S'z9697'
p3184
tp3185
Rp3186
(dp3187
g18
g0
(g19
g20
(dp3188
g50
Nsg34
Nsg51
Nsg52
Nsg26
Nsg36
Nsg37
Nsg38
Nsg53
Nsg28
Nsg54
Nsg56
Nsg27
Nsg55
Nsg35
I01
stp3189
Rp3190
sbg454
sg13
(S'z1921'
p3191
tp3192
Rp3193
(dp3194
g18
g0
(g19
g20
(dp3195
g50
Nsg34
Nsg35
I01
sg52
Nsg26
Nsg36
Nsg37
Nsg38
Nsg53
Nsg28
Nsg54
Nsg56
Nsg27
Nsg55
Nsg51
Nstp3196
Rp3197
sbg454
sg13
(S'z4248'
p3198
tp3199
Rp3200
(dp3201
g18
g0
(g19
g20
(dp3202
g50
Nsg34
Nsg35
I01
sg52
Nsg26
Nsg36
Nsg37
Nsg38
Nsg53
Nsg28
Nsg54
Nsg56
Nsg27
Nsg55
Nsg51
Nstp3203
Rp3204
sbg454
sg13
(S'p32'
p3205
tp3206
Rp3207
(dp3208
g18
g0
(g19
g20
(dp3209
g22
Nsg24
Nsg25
Nsg26
Nsg27
Nsg31
Nsg29
Nsg30
Nsg33
Nsg32
Nsg34
Nsg35
I01
sg28
Nsg36
Nsg37
Nsg38
Nsg39
Nstp3210
Rp3211
sbg454
sg13
(S'z3743'
p3212
tp3213
Rp3214
(dp3215
g18
g0
(g19
g20
(dp3216
g50
Nsg34
Nsg35
I01
sg52
Nsg26
Nsg36
Nsg37
Nsg38
Nsg53
Nsg28
Nsg54
Nsg56
Nsg27
Nsg55
Nsg51
Nstp3217
Rp3218
sbg454
sg13
(S'z8284'
p3219
tp3220
Rp3221
(dp3222
g18
g0
(g19
g20
(dp3223
g34
Nsg22
Nsg35
I01
sg25
Nsg26
Nsg36
Nsg37
Nsg38
Nsg31
Nsg28
Nsg29
Nsg39
Nsg27
Nsg33
Nsg24
Nstp3224
Rp3225
sbg454
sg13
(S'z8387'
p3226
tp3227
Rp3228
(dp3229
g18
g0
(g19
g20
(dp3230
g34
Nsg22
Nsg35
I01
sg25
Nsg26
Nsg36
Nsg37
Nsg38
Nsg31
Nsg28
Nsg29
Nsg39
Nsg27
Nsg33
Nsg24
Nstp3231
Rp3232
sbg454
sg13
(S'z2224'
p3233
tp3234
Rp3235
(dp3236
g18
g0
(g19
g20
(dp3237
g22
Nsg24
Nsg25
Nsg26
Nsg27
Nsg31
Nsg29
Nsg30
Nsg33
Nsg32
Nsg34
Nsg35
I01
sg28
Nsg36
Nsg37
Nsg38
Nsg39
Nstp3238
Rp3239
sbg454
sg13
(S'z24'
p3240
tp3241
Rp3242
(dp3243
g18
g0
(g19
g20
(dp3244
g50
Nsg51
Nsg52
Nsg26
Nsg27
Nsg53
Nsg54
Nsg30
Nsg55
Nsg32
Nsg34
Nsg35
I01
sg28
Nsg36
Nsg37
Nsg38
Nsg56
Nstp3245
Rp3246
sbg454
sg13
(S'z8788'
p3247
tp3248
Rp3249
(dp3250
g18
g0
(g19
g20
(dp3251
g50
Nsg51
Nsg52
Nsg26
Nsg27
Nsg53
Nsg54
Nsg30
Nsg55
Nsg32
Nsg34
Nsg35
I01
sg28
Nsg36
Nsg37
Nsg38
Nsg56
Nstp3252
Rp3253
sbg454
sg13
(S'z6064'
p3254
tp3255
Rp3256
(dp3257
g18
g0
(g19
g20
(dp3258
g34
Nsg22
Nsg35
I01
sg25
Nsg26
Nsg36
Nsg37
Nsg38
Nsg31
Nsg28
Nsg29
Nsg39
Nsg27
Nsg33
Nsg24
Nstp3259
Rp3260
sbg454
sg13
(S'z2225'
p3261
tp3262
Rp3263
(dp3264
g18
g0
(g19
g20
(dp3265
g50
Nsg51
Nsg52
Nsg26
Nsg27
Nsg53
Nsg54
Nsg30
Nsg55
Nsg32
Nsg34
Nsg35
I01
sg28
Nsg36
Nsg37
Nsg38
Nsg56
Nstp3266
Rp3267
sbg454
sg13
(S'z4749'
p3268
tp3269
Rp3270
(dp3271
g18
g0
(g19
g20
(dp3272
g34
Nsg22
Nsg35
I01
sg25
Nsg26
Nsg36
Nsg37
Nsg38
Nsg31
Nsg28
Nsg29
Nsg39
Nsg27
Nsg33
Nsg24
Nstp3273
Rp3274
sbg454
sg13
(S'z2223'
p3275
tp3276
Rp3277
(dp3278
g18
g0
(g19
g20
(dp3279
g50
Nsg51
Nsg52
Nsg26
Nsg27
Nsg53
Nsg54
Nsg30
Nsg55
Nsg32
Nsg34
Nsg35
I01
sg28
Nsg36
Nsg37
Nsg38
Nsg56
Nstp3280
Rp3281
sbg454
sg13
(S'q23'
p3282
tp3283
Rp3284
(dp3285
g18
g0
(g19
g20
(dp3286
g34
Nsg22
Nsg35
I01
sg26
Nsg36
Nsg37
Nsg38
Nsg28
Nsg27
Nstp3287
Rp3288
sbg454
sg13
(S'z4344'
p3289
tp3290
Rp3291
(dp3292
g18
g0
(g19
g20
(dp3293
g50
Nsg51
Nsg52
Nsg26
Nsg27
Nsg53
Nsg54
Nsg30
Nsg55
Nsg32
Nsg34
Nsg35
I01
sg28
Nsg36
Nsg37
Nsg38
Nsg56
Nstp3294
Rp3295
sbg454
sg13
(S'z7479'
p3296
tp3297
Rp3298
(dp3299
g18
g0
(g19
g20
(dp3300
g34
Nsg22
Nsg35
I01
sg26
Nsg36
Nsg37
Nsg38
Nsg28
Nsg27
Nstp3301
Rp3302
sbg454
sg13
(S'z3435'
p3303
tp3304
Rp3305
(dp3306
g18
g0
(g19
g20
(dp3307
g22
Nsg24
Nsg25
Nsg26
Nsg27
Nsg31
Nsg29
Nsg30
Nsg33
Nsg32
Nsg34
Nsg35
I01
sg28
Nsg36
Nsg37
Nsg38
Nsg39
Nstp3308
Rp3309
sbg454
sg13
(S'z9394'
p3310
tp3311
Rp3312
(dp3313
g18
g0
(g19
g20
(dp3314
g50
Nsg34
Nsg35
I01
sg52
Nsg26
Nsg36
Nsg37
Nsg38
Nsg53
Nsg28
Nsg54
Nsg56
Nsg27
Nsg55
Nsg51
Nstp3315
Rp3316
sbg454
sg13
(S'z7780'
p3317
tp3318
Rp3319
(dp3320
g18
g0
(g19
g20
(dp3321
g50
Nsg51
Nsg52
Nsg26
Nsg27
Nsg37
Nsg28
Nsg54
Nsg137
Nsg55
Nsg138
Nsg34
Nsg35
I01
sg36
Nsg53
Nsg38
Nsg56
Nstp3322
Rp3323
sbg454
sg13
(S'z3844'
p3324
tp3325
Rp3326
(dp3327
g18
g0
(g19
g20
(dp3328
g50
Nsg34
Nsg35
I01
sg52
Nsg26
Nsg36
Nsg37
Nsg38
Nsg53
Nsg28
Nsg54
Nsg56
Nsg27
Nsg55
Nsg51
Nstp3329
Rp3330
sbg454
sg13
(S'z6165'
p3331
tp3332
Rp3333
(dp3334
g18
g0
(g19
g20
(dp3335
g34
Nsg22
Nsg35
I01
sg25
Nsg26
Nsg36
Nsg37
Nsg38
Nsg31
Nsg28
Nsg29
Nsg39
Nsg27
Nsg33
Nsg24
Nstp3336
Rp3337
sbg454
sg13
(S'z3945'
p3338
tp3339
Rp3340
(dp3341
g18
g0
(g19
g20
(dp3342
g50
Nsg34
Nsg35
I01
sg52
Nsg26
Nsg36
Nsg37
Nsg38
Nsg53
Nsg28
Nsg54
Nsg56
Nsg27
Nsg55
Nsg51
Nstp3343
Rp3344
sbg454
sg13
(S'z4849'
p3345
tp3346
Rp3347
(dp3348
g18
g0
(g19
g20
(dp3349
g22
Nsg24
Nsg25
Nsg26
Nsg27
Nsg31
Nsg29
Nsg30
Nsg33
Nsg32
Nsg34
Nsg35
I01
sg28
Nsg36
Nsg37
Nsg38
Nsg39
Nstp3350
Rp3351
sbg454
sg13
(S'z1416'
p3352
tp3353
Rp3354
(dp3355
g18
g0
(g19
g20
(dp3356
g50
Nsg51
Nsg52
Nsg26
Nsg27
Nsg37
Nsg53
Nsg29
Nsg137
Nsg55
Nsg138
Nsg34
Nsg35
I01
sg36
Nsg28
Nsg38
Nsg56
Nstp3357
Rp3358
sbg454
sg13
(S'z5960'
p3359
tp3360
Rp3361
(dp3362
g18
g0
(g19
g20
(dp3363
g34
Nsg22
Nsg35
I01
sg25
Nsg26
Nsg36
Nsg37
Nsg38
Nsg31
Nsg28
Nsg29
Nsg39
Nsg27
Nsg33
Nsg24
Nstp3364
Rp3365
sbg454
sg13
(S'z1417'
p3366
tp3367
Rp3368
(dp3369
g18
g0
(g19
g20
(dp3370
g22
Nsg24
Nsg25
Nsg26
Nsg27
Nsg28
Nsg29
Nsg30
Nsg31
Nsg32
Nsg33
Nsg34
Nsg35
I01
sg36
Nsg37
Nsg38
Nsg39
Nstp3371
Rp3372
sbg454
sg13
(S'z6566'
p3373
tp3374
Rp3375
(dp3376
g18
g0
(g19
g20
(dp3377
g34
Nsg22
Nsg35
I01
sg25
Nsg26
Nsg36
Nsg37
Nsg38
Nsg31
Nsg28
Nsg29
Nsg39
Nsg27
Nsg33
Nsg24
Nstp3378
Rp3379
sbg454
sg13
(S'z2123'
p3380
tp3381
Rp3382
(dp3383
g18
g0
(g19
g20
(dp3384
g50
Nsg34
Nsg35
I01
sg52
Nsg26
Nsg36
Nsg37
Nsg38
Nsg53
Nsg28
Nsg54
Nsg56
Nsg27
Nsg55
Nsg51
Nstp3385
Rp3386
sbg454
sg13
(S'z2832'
p3387
tp3388
Rp3389
(dp3390
g18
g0
(g19
g20
(dp3391
g50
Nsg34
Nsg35
I01
sg52
Nsg26
Nsg36
Nsg37
Nsg38
Nsg53
Nsg28
Nsg54
Nsg56
Nsg27
Nsg55
Nsg51
Nstp3392
Rp3393
sbg454
sg13
(S'z5256'
p3394
tp3395
Rp3396
(dp3397
g18
g0
(g19
g20
(dp3398
g50
Nsg34
Nsg35
I01
sg52
Nsg26
Nsg36
Nsg37
Nsg38
Nsg53
Nsg28
Nsg54
Nsg56
Nsg27
Nsg55
Nsg51
Nstp3399
Rp3400
sbg454
sg13
(S'z5156'
p3401
tp3402
Rp3403
(dp3404
g18
g0
(g19
g20
(dp3405
g34
Nsg22
Nsg35
I01
sg25
Nsg26
Nsg36
Nsg37
Nsg38
Nsg31
Nsg28
Nsg29
Nsg39
Nsg27
Nsg33
Nsg24
Nstp3406
Rp3407
sbg454
sg13
(S'z7678'
p3408
tp3409
Rp3410
(dp3411
g18
g0
(g19
g20
(dp3412
g50
Nsg34
Nsg35
I01
sg52
Nsg26
Nsg36
Nsg37
Nsg38
Nsg53
Nsg28
Nsg54
Nsg56
Nsg27
Nsg55
Nsg51
Nstp3413
Rp3414
sbg454
sg13
(S'z1920'
p3415
tp3416
Rp3417
(dp3418
g18
g0
(g19
g20
(dp3419
g50
Nsg51
Nsg52
Nsg26
Nsg27
Nsg53
Nsg54
Nsg30
Nsg55
Nsg32
Nsg34
Nsg35
I01
sg28
Nsg36
Nsg37
Nsg38
Nsg56
Nstp3420
Rp3421
sbg454
sg13
(S'q47'
p3422
tp3423
Rp3424
(dp3425
g18
g0
(g19
g20
(dp3426
g50
Nsg51
Nsg52
Nsg26
Nsg27
Nsg37
Nsg53
Nsg137
Nsg55
Nsg138
Nsg34
Nsg35
I01
sg36
Nsg28
Nsg38
Nsg56
Nstp3427
Rp3428
sbg454
sg13
(S'q40'
p3429
tp3430
Rp3431
(dp3432
g18
g0
(g19
g20
(dp3433
g34
Nsg22
Nsg35
I01
sg26
Nsg36
Nsg37
Nsg38
Nsg28
Nsg27
Nstp3434
Rp3435
sbg454
sg13
(S'z8790'
p3436
tp3437
Rp3438
(dp3439
g18
g0
(g19
g20
(dp3440
g50
Nsg51
Nsg52
Nsg26
Nsg27
Nsg53
Nsg54
Nsg30
Nsg55
Nsg32
Nsg34
Nsg35
I01
sg28
Nsg36
Nsg37
Nsg38
Nsg56
Nstp3441
Rp3442
sbg454
sg13
(S'z3334'
p3443
tp3444
Rp3445
(dp3446
g18
g0
(g19
g20
(dp3447
g50
Nsg34
Nsg35
I01
sg52
Nsg26
Nsg36
Nsg37
Nsg38
Nsg53
Nsg28
Nsg54
Nsg56
Nsg27
Nsg55
Nsg51
Nstp3448
Rp3449
sbg454
sg13
(S'z913'
p3450
tp3451
Rp3452
(dp3453
g18
g0
(g19
g20
(dp3454
g50
Nsg51
Nsg52
Nsg26
Nsg27
Nsg37
Nsg28
Nsg54
Nsg137
Nsg55
Nsg138
Nsg34
Nsg35
I01
sg36
Nsg53
Nsg38
Nsg56
Nstp3455
Rp3456
sbg454
sg13
(S'z4042'
p3457
tp3458
Rp3459
(dp3460
g18
g0
(g19
g20
(dp3461
g50
Nsg51
Nsg52
Nsg26
Nsg27
Nsg53
Nsg54
Nsg30
Nsg55
Nsg32
Nsg34
Nsg35
I01
sg28
Nsg36
Nsg37
Nsg38
Nsg56
Nstp3462
Rp3463
sbg454
sg13
(S'q3'
p3464
tp3465
Rp3466
(dp3467
g18
g0
(g19
g20
(dp3468
g22
Nsg24
Nsg25
Nsg26
Nsg27
Nsg31
Nsg29
Nsg30
Nsg33
Nsg32
Nsg34
Nsg35
I01
sg28
Nsg36
Nsg37
Nsg38
Nsg39
Nstp3469
Rp3470
sbg454
sg13
(S'z2326'
p3471
tp3472
Rp3473
(dp3474
g18
g0
(g19
g20
(dp3475
g34
Nsg22
Nsg35
I01
sg25
Nsg26
Nsg36
Nsg37
Nsg38
Nsg31
Nsg28
Nsg29
Nsg39
Nsg27
Nsg33
Nsg24
Nstp3476
Rp3477
sbg454
sg13
(S'z5761'
p3478
tp3479
Rp3480
(dp3481
g18
g0
(g19
g20
(dp3482
g34
Nsg22
Nsg35
I01
sg25
Nsg26
Nsg36
Nsg37
Nsg38
Nsg31
Nsg28
Nsg29
Nsg39
Nsg27
Nsg33
Nsg24
Nstp3483
Rp3484
sbg454
sg13
(S'z58'
p3485
tp3486
Rp3487
(dp3488
g18
g0
(g19
g20
(dp3489
g50
Nsg34
Nsg51
Nsg52
Nsg26
Nsg36
Nsg37
Nsg38
Nsg53
Nsg28
Nsg54
Nsg56
Nsg27
Nsg55
Nsg35
I01
stp3490
Rp3491
sbg454
sg13
(S'z6768'
p3492
tp3493
Rp3494
(dp3495
g18
g0
(g19
g20
(dp3496
g34
Nsg22
Nsg35
I01
sg25
Nsg26
Nsg36
Nsg37
Nsg38
Nsg31
Nsg28
Nsg29
Nsg39
Nsg27
Nsg33
Nsg24
Nstp3497
Rp3498
sbg454
sg13
(S'z6568'
p3499
tp3500
Rp3501
(dp3502
g18
g0
(g19
g20
(dp3503
g50
Nsg34
Nsg35
I01
sg52
Nsg26
Nsg36
Nsg37
Nsg38
Nsg53
Nsg28
Nsg54
Nsg56
Nsg27
Nsg55
Nsg51
Nstp3504
Rp3505
sbg454
sg13
(S'q38'
p3506
tp3507
Rp3508
(dp3509
g18
g0
(g19
g20
(dp3510
g34
Nsg22
Nsg35
I01
sg26
Nsg36
Nsg37
Nsg38
Nsg28
Nsg27
Nstp3511
Rp3512
sbg454
sg13
(S'z3031'
p3513
tp3514
Rp3515
(dp3516
g18
g0
(g19
g20
(dp3517
g50
Nsg34
Nsg51
Nsg52
Nsg26
Nsg36
Nsg37
Nsg38
Nsg53
Nsg28
Nsg54
Nsg56
Nsg27
Nsg55
Nsg35
I01
stp3518
Rp3519
sbg454
sg13
(S'z1317'
p3520
tp3521
Rp3522
(dp3523
g18
g0
(g19
g20
(dp3524
g50
Nsg34
Nsg35
I01
sg52
Nsg26
Nsg36
Nsg37
Nsg38
Nsg53
Nsg28
Nsg54
Nsg56
Nsg27
Nsg55
Nsg51
Nstp3525
Rp3526
sbg454
sg13
(S'z4349'
p3527
tp3528
Rp3529
(dp3530
g18
g0
(g19
g20
(dp3531
g50
Nsg34
Nsg35
I01
sg52
Nsg26
Nsg36
Nsg37
Nsg38
Nsg53
Nsg28
Nsg54
Nsg56
Nsg27
Nsg55
Nsg51
Nstp3532
Rp3533
sbg454
sg13
(S'q33'
p3534
tp3535
Rp3536
(dp3537
g18
g0
(g19
g20
(dp3538
g34
Nsg22
Nsg35
I01
sg26
Nsg36
Nsg37
Nsg38
Nsg28
Nsg27
Nstp3539
Rp3540
sbg454
sg13
(S'z2527'
p3541
tp3542
Rp3543
(dp3544
g18
g0
(g19
g20
(dp3545
g50
Nsg51
Nsg52
Nsg26
Nsg27
Nsg37
Nsg53
Nsg29
Nsg137
Nsg55
Nsg138
Nsg34
Nsg35
I01
sg36
Nsg28
Nsg38
Nsg56
Nstp3546
Rp3547
sbg454
sg13
(S'z8488'
p3548
tp3549
Rp3550
(dp3551
g18
g0
(g19
g20
(dp3552
g50
Nsg34
Nsg51
Nsg52
Nsg26
Nsg36
Nsg37
Nsg38
Nsg53
Nsg28
Nsg54
Nsg56
Nsg27
Nsg55
Nsg35
I01
stp3553
Rp3554
sbg454
sg13
(S'q28'
p3555
tp3556
Rp3557
(dp3558
g18
g0
(g19
g20
(dp3559
g22
Nsg24
Nsg25
Nsg26
Nsg27
Nsg28
Nsg30
Nsg31
Nsg32
Nsg33
Nsg34
Nsg35
I01
sg36
Nsg37
Nsg38
Nsg39
Nstp3560
Rp3561
sbg454
sg13
(S'z5356'
p3562
tp3563
Rp3564
(dp3565
g18
g0
(g19
g20
(dp3566
g50
Nsg34
Nsg51
Nsg52
Nsg26
Nsg36
Nsg37
Nsg38
Nsg53
Nsg28
Nsg54
Nsg56
Nsg27
Nsg55
Nsg35
I01
stp3567
Rp3568
sbg454
sg13
(S'q12'
p3569
tp3570
Rp3571
(dp3572
g18
g0
(g19
g20
(dp3573
g34
Nsg22
Nsg35
I01
sg25
Nsg26
Nsg36
Nsg37
Nsg38
Nsg31
Nsg28
Nsg29
Nsg39
Nsg27
Nsg33
Nsg24
Nstp3574
Rp3575
sbg454
sg13
(S'z8084'
p3576
tp3577
Rp3578
(dp3579
g18
g0
(g19
g20
(dp3580
g34
Nsg22
Nsg35
I01
sg25
Nsg26
Nsg36
Nsg37
Nsg38
Nsg31
Nsg28
Nsg29
Nsg39
Nsg27
Nsg33
Nsg24
Nstp3581
Rp3582
sbg454
sg13
(S'z9598'
p3583
tp3584
Rp3585
(dp3586
g18
g0
(g19
g20
(dp3587
g34
Nsg22
Nsg35
I01
sg26
Nsg36
Nsg37
Nsg38
Nsg28
Nsg27
Nstp3588
Rp3589
sbg454
sg13
(S'z9397'
p3590
tp3591
Rp3592
(dp3593
g18
g0
(g19
g20
(dp3594
g50
Nsg34
Nsg35
I01
sg52
Nsg26
Nsg36
Nsg37
Nsg38
Nsg53
Nsg28
Nsg54
Nsg56
Nsg27
Nsg55
Nsg51
Nstp3595
Rp3596
sbg454
sg13
(S'z8085'
p3597
tp3598
Rp3599
(dp3600
g18
g0
(g19
g20
(dp3601
g50
Nsg34
Nsg51
Nsg52
Nsg26
Nsg36
Nsg37
Nsg38
Nsg53
Nsg28
Nsg54
Nsg56
Nsg27
Nsg55
Nsg35
I01
stp3602
Rp3603
sbg454
sg13
(S'z7781'
p3604
tp3605
Rp3606
(dp3607
g18
g0
(g19
g20
(dp3608
g50
Nsg34
Nsg35
I01
sg52
Nsg26
Nsg36
Nsg37
Nsg38
Nsg53
Nsg28
Nsg54
Nsg56
Nsg27
Nsg55
Nsg51
Nstp3609
Rp3610
sbg454
sg13
(S'z7273'
p3611
tp3612
Rp3613
(dp3614
g18
g0
(g19
g20
(dp3615
g50
Nsg34
Nsg35
I01
sg52
Nsg26
Nsg36
Nsg37
Nsg38
Nsg53
Nsg28
Nsg54
Nsg56
Nsg27
Nsg55
Nsg51
Nstp3616
Rp3617
sbg454
sg13
(S'p38'
p3618
tp3619
Rp3620
(dp3621
g18
g0
(g19
g20
(dp3622
g22
Nsg24
Nsg25
Nsg26
Nsg27
Nsg31
Nsg29
Nsg30
Nsg33
Nsg32
Nsg34
Nsg35
I01
sg28
Nsg36
Nsg37
Nsg38
Nsg39
Nstp3623
Rp3624
sbg454
sg13
(S'z5257'
p3625
tp3626
Rp3627
(dp3628
g18
g0
(g19
g20
(dp3629
g50
Nsg34
Nsg51
Nsg52
Nsg26
Nsg36
Nsg37
Nsg38
Nsg53
Nsg28
Nsg54
Nsg56
Nsg27
Nsg55
Nsg35
I01
stp3630
Rp3631
sbg454
sg13
(S'p4'
p3632
tp3633
Rp3634
(dp3635
g18
g0
(g19
g20
(dp3636
g22
Nsg24
Nsg25
Nsg26
Nsg27
Nsg31
Nsg29
Nsg30
Nsg33
Nsg32
Nsg34
Nsg35
I01
sg28
Nsg36
Nsg37
Nsg38
Nsg39
Nstp3637
Rp3638
sbg7
(g201
g8
(g2533
g143
tp3639
Rp3640
(dp3641
btp3642
Rp3643
(dp3644
bsg13
(S'z6973'
p3645
tp3646
Rp3647
(dp3648
g18
g0
(g19
g20
(dp3649
g50
Nsg34
Nsg35
I01
sg52
Nsg26
Nsg36
Nsg37
Nsg38
Nsg53
Nsg28
Nsg54
Nsg56
Nsg27
Nsg55
Nsg51
Nstp3650
Rp3651
sbg454
sg13
(S'z1721'
p3652
tp3653
Rp3654
(dp3655
g18
g0
(g19
g20
(dp3656
g50
Nsg51
Nsg52
Nsg26
Nsg27
Nsg37
Nsg53
Nsg29
Nsg137
Nsg55
Nsg138
Nsg34
Nsg35
I01
sg36
Nsg28
Nsg38
Nsg56
Nstp3657
Rp3658
sbg454
sg13
(S'z3637'
p3659
tp3660
Rp3661
(dp3662
g18
g0
(g19
g20
(dp3663
g22
Nsg24
Nsg25
Nsg26
Nsg27
Nsg31
Nsg29
Nsg30
Nsg33
Nsg32
Nsg34
Nsg35
I01
sg28
Nsg36
Nsg37
Nsg38
Nsg39
Nstp3664
Rp3665
sbg454
sg13
(S'z3437'
p3666
tp3667
Rp3668
(dp3669
g18
g0
(g19
g20
(dp3670
g34
Nsg22
Nsg35
I01
sg25
Nsg26
Nsg36
Nsg37
Nsg38
Nsg31
Nsg28
Nsg29
Nsg39
Nsg27
Nsg33
Nsg24
Nstp3671
Rp3672
sbg454
sg13
(S'z2327'
p3673
tp3674
Rp3675
(dp3676
g18
g0
(g19
g20
(dp3677
g34
Nsg22
Nsg35
I01
sg25
Nsg26
Nsg36
Nsg37
Nsg38
Nsg31
Nsg28
Nsg29
Nsg39
Nsg27
Nsg33
Nsg24
Nstp3678
Rp3679
sbg454
sg13
(S'z9596'
p3680
tp3681
Rp3682
(dp3683
g18
g0
(g19
g20
(dp3684
g22
Nsg24
Nsg25
Nsg26
Nsg27
Nsg31
Nsg29
Nsg30
Nsg33
Nsg32
Nsg34
Nsg35
I01
sg28
Nsg36
Nsg37
Nsg38
Nsg39
Nstp3685
Rp3686
sbg454
sg13
(S'z2731'
p3687
tp3688
Rp3689
(dp3690
g18
g0
(g19
g20
(dp3691
g50
Nsg34
Nsg35
I01
sg52
Nsg26
Nsg36
Nsg37
Nsg38
Nsg53
Nsg28
Nsg54
Nsg56
Nsg27
Nsg55
Nsg51
Nstp3692
Rp3693
sbg454
sg13
(S'z4345'
p3694
tp3695
Rp3696
(dp3697
g18
g0
(g19
g20
(dp3698
g50
Nsg34
Nsg35
I01
sg52
Nsg26
Nsg36
Nsg37
Nsg38
Nsg53
Nsg28
Nsg54
Nsg56
Nsg27
Nsg55
Nsg51
Nstp3699
Rp3700
sbg454
sg13
(S'z8283'
p3701
tp3702
Rp3703
(dp3704
g18
g0
(g19
g20
(dp3705
g50
Nsg51
Nsg52
Nsg26
Nsg27
Nsg53
Nsg54
Nsg30
Nsg55
Nsg32
Nsg34
Nsg35
I01
sg28
Nsg36
Nsg37
Nsg38
Nsg56
Nstp3706
Rp3707
sbg454
sg13
(S'p14'
p3708
tp3709
Rp3710
(dp3711
g18
g0
(g19
g20
(dp3712
g34
Nsg22
Nsg35
I01
sg25
Nsg26
Nsg36
Nsg37
Nsg38
Nsg31
Nsg28
Nsg29
Nsg39
Nsg27
Nsg33
Nsg24
Nstp3713
Rp3714
sbg454
sg13
(S'z1014'
p3715
tp3716
Rp3717
(dp3718
g18
g0
(g19
g20
(dp3719
g50
Nsg34
Nsg35
I01
sg52
Nsg26
Nsg36
Nsg37
Nsg38
Nsg53
Nsg28
Nsg54
Nsg56
Nsg27
Nsg55
Nsg51
Nstp3720
Rp3721
sbg454
sg13
(S'z3233'
p3722
tp3723
Rp3724
(dp3725
g18
g0
(g19
g20
(dp3726
g34
Nsg22
Nsg35
I01
sg25
Nsg26
Nsg36
Nsg37
Nsg38
Nsg31
Nsg28
Nsg29
Nsg39
Nsg27
Nsg33
Nsg24
Nstp3727
Rp3728
sbg454
sg13
(S'p29'
p3729
tp3730
Rp3731
(dp3732
g18
g0
(g19
g20
(dp3733
g34
Nsg22
Nsg35
I01
sg25
Nsg26
Nsg36
Nsg37
Nsg38
Nsg31
Nsg28
Nsg29
Nsg39
Nsg27
Nsg33
Nsg24
Nstp3734
Rp3735
sbg454
sg13
(S'z5258'
p3736
tp3737
Rp3738
(dp3739
g18
g0
(g19
g20
(dp3740
g50
Nsg34
Nsg35
I01
sg52
Nsg26
Nsg36
Nsg37
Nsg38
Nsg53
Nsg28
Nsg54
Nsg56
Nsg27
Nsg55
Nsg51
Nstp3741
Rp3742
sbg454
sg13
(S'z7378'
p3743
tp3744
Rp3745
(dp3746
g18
g0
(g19
g20
(dp3747
g34
Nsg22
Nsg35
I01
sg26
Nsg36
Nsg37
Nsg38
Nsg28
Nsg27
Nstp3748
Rp3749
sbg454
sg13
(S'z2427'
p3750
tp3751
Rp3752
(dp3753
g18
g0
(g19
g20
(dp3754
g50
Nsg34
Nsg51
Nsg52
Nsg26
Nsg36
Nsg37
Nsg38
Nsg53
Nsg28
Nsg54
Nsg56
Nsg27
Nsg55
Nsg35
I01
stp3755
Rp3756
sbg454
sg13
(S'z6873'
p3757
tp3758
Rp3759
(dp3760
g18
g0
(g19
g20
(dp3761
g50
Nsg34
Nsg51
Nsg52
Nsg26
Nsg36
Nsg37
Nsg38
Nsg53
Nsg28
Nsg54
Nsg56
Nsg27
Nsg55
Nsg35
I01
stp3762
Rp3763
sbg454
sg13
(S'z6668'
p3764
tp3765
Rp3766
(dp3767
g18
g0
(g19
g20
(dp3768
g50
Nsg51
Nsg52
Nsg26
Nsg27
Nsg53
Nsg54
Nsg30
Nsg55
Nsg32
Nsg34
Nsg35
I01
sg28
Nsg36
Nsg37
Nsg38
Nsg56
Nstp3769
Rp3770
sbg454
sg13
(S'z2021'
p3771
tp3772
Rp3773
(dp3774
g18
g0
(g19
g20
(dp3775
g22
Nsg24
Nsg25
Nsg26
Nsg27
Nsg31
Nsg29
Nsg30
Nsg33
Nsg32
Nsg34
Nsg35
I01
sg28
Nsg36
Nsg37
Nsg38
Nsg39
Nstp3776
Rp3777
sbg454
sg13
(S'q15'
p3778
tp3779
Rp3780
(dp3781
g18
g0
(g19
g20
(dp3782
g22
Nsg24
Nsg25
Nsg26
Nsg27
Nsg28
Nsg29
Nsg30
Nsg31
Nsg32
Nsg33
Nsg34
Nsg35
I01
sg36
Nsg37
Nsg38
Nsg39
Nstp3783
Rp3784
sbg454
sg13
(S'z4446'
p3785
tp3786
Rp3787
(dp3788
g18
g0
(g19
g20
(dp3789
g22
Nsg24
Nsg25
Nsg26
Nsg27
Nsg31
Nsg29
Nsg30
Nsg33
Nsg32
Nsg34
Nsg35
I01
sg28
Nsg36
Nsg37
Nsg38
Nsg39
Nstp3790
Rp3791
sbg454
sg13
(S'z4954'
p3792
tp3793
Rp3794
(dp3795
g18
g0
(g19
g20
(dp3796
g50
Nsg34
Nsg35
I01
sg52
Nsg26
Nsg36
Nsg37
Nsg38
Nsg53
Nsg28
Nsg54
Nsg56
Nsg27
Nsg55
Nsg51
Nstp3797
Rp3798
sbg454
sg13
(S'z7580'
p3799
tp3800
Rp3801
(dp3802
g18
g0
(g19
g20
(dp3803
g50
Nsg34
Nsg35
I01
sg52
Nsg26
Nsg36
Nsg37
Nsg38
Nsg53
Nsg28
Nsg54
Nsg56
Nsg27
Nsg55
Nsg51
Nstp3804
Rp3805
sbg454
sg13
(S'z5762'
p3806
tp3807
Rp3808
(dp3809
g18
g0
(g19
g20
(dp3810
g34
Nsg22
Nsg35
I01
sg25
Nsg26
Nsg36
Nsg37
Nsg38
Nsg31
Nsg28
Nsg29
Nsg39
Nsg27
Nsg33
Nsg24
Nstp3811
Rp3812
sbg454
sg13
(S'z6567'
p3813
tp3814
Rp3815
(dp3816
g18
g0
(g19
g20
(dp3817
g50
Nsg34
Nsg35
I01
sg52
Nsg26
Nsg36
Nsg37
Nsg38
Nsg53
Nsg28
Nsg54
Nsg56
Nsg27
Nsg55
Nsg51
Nstp3818
Rp3819
sbg454
sg13
(S'z2425'
p3820
tp3821
Rp3822
(dp3823
g18
g0
(g19
g20
(dp3824
g50
Nsg51
Nsg52
Nsg26
Nsg27
Nsg53
Nsg54
Nsg30
Nsg55
Nsg32
Nsg34
Nsg35
I01
sg28
Nsg36
Nsg37
Nsg38
Nsg56
Nstp3825
Rp3826
sbg454
sg13
(S'z3741'
p3827
tp3828
Rp3829
(dp3830
g18
g0
(g19
g20
(dp3831
g50
Nsg34
Nsg35
I01
sg52
Nsg26
Nsg36
Nsg37
Nsg38
Nsg53
Nsg28
Nsg54
Nsg56
Nsg27
Nsg55
Nsg51
Nstp3832
Rp3833
sbg454
sg13
(S'p2'
p3834
tp3835
Rp3836
(dp3837
g18
g0
(g19
g20
(dp3838
g22
Nsg24
Nsg25
Nsg26
Nsg27
Nsg31
Nsg29
Nsg30
Nsg33
Nsg32
Nsg34
Nsg35
I01
sg28
Nsg36
Nsg37
Nsg38
Nsg39
Nstp3839
Rp3840
sbg7
(g201
g8
(g2533
g82
tp3841
Rp3842
(dp3843
btp3844
Rp3845
(dp3846
bsg13
(S'z9698'
p3847
tp3848
Rp3849
(dp3850
g18
g0
(g19
g20
(dp3851
g50
Nsg51
Nsg52
Nsg26
Nsg27
Nsg37
Nsg28
Nsg54
Nsg137
Nsg55
Nsg138
Nsg34
Nsg35
I01
sg36
Nsg53
Nsg38
Nsg56
Nstp3852
Rp3853
sbg454
sg13
(S'z6066'
p3854
tp3855
Rp3856
(dp3857
g18
g0
(g19
g20
(dp3858
g50
Nsg34
Nsg35
I01
sg52
Nsg26
Nsg36
Nsg37
Nsg38
Nsg53
Nsg28
Nsg54
Nsg56
Nsg27
Nsg55
Nsg51
Nstp3859
Rp3860
sbg454
sg13
(S'z8889'
p3861
tp3862
Rp3863
(dp3864
g18
g0
(g19
g20
(dp3865
g34
Nsg22
Nsg35
I01
sg25
Nsg26
Nsg36
Nsg37
Nsg38
Nsg31
Nsg28
Nsg29
Nsg39
Nsg27
Nsg33
Nsg24
Nstp3866
Rp3867
sbg454
sg13
(S'q42'
p3868
tp3869
Rp3870
(dp3871
g18
g0
(g19
g20
(dp3872
g34
Nsg22
Nsg35
I01
sg26
Nsg36
Nsg37
Nsg38
Nsg28
Nsg27
Nstp3873
Rp3874
sbg454
sg13
(S'q21'
p3875
tp3876
Rp3877
(dp3878
g18
g0
(g19
g20
(dp3879
g22
Nsg24
Nsg25
Nsg26
Nsg27
Nsg28
Nsg29
Nsg30
Nsg31
Nsg32
Nsg33
Nsg34
Nsg35
I01
sg36
Nsg37
Nsg38
Nsg39
Nstp3880
Rp3881
sbg454
sg13
(S'z6268'
p3882
tp3883
Rp3884
(dp3885
g18
g0
(g19
g20
(dp3886
g50
Nsg34
Nsg51
Nsg52
Nsg26
Nsg36
Nsg37
Nsg38
Nsg53
Nsg28
Nsg54
Nsg56
Nsg27
Nsg55
Nsg35
I01
stp3887
Rp3888
sbg454
sg13
(S'z6571'
p3889
tp3890
Rp3891
(dp3892
g18
g0
(g19
g20
(dp3893
g50
Nsg34
Nsg51
Nsg52
Nsg26
Nsg36
Nsg37
Nsg38
Nsg53
Nsg28
Nsg54
Nsg56
Nsg27
Nsg55
Nsg35
I01
stp3894
Rp3895
sbg454
sg13
(S'q26'
p3896
tp3897
Rp3898
(dp3899
g18
g0
(g19
g20
(dp3900
g34
Nsg22
Nsg35
I01
sg26
Nsg36
Nsg37
Nsg38
Nsg28
Nsg27
Nstp3901
Rp3902
sbg454
sg13
(S'z5458'
p3903
tp3904
Rp3905
(dp3906
g18
g0
(g19
g20
(dp3907
g34
Nsg22
Nsg35
I01
sg25
Nsg26
Nsg36
Nsg37
Nsg38
Nsg31
Nsg28
Nsg29
Nsg39
Nsg27
Nsg33
Nsg24
Nstp3908
Rp3909
sbg454
sg13
(S'z6167'
p3910
tp3911
Rp3912
(dp3913
g18
g0
(g19
g20
(dp3914
g50
Nsg34
Nsg51
Nsg52
Nsg26
Nsg36
Nsg37
Nsg38
Nsg53
Nsg28
Nsg54
Nsg56
Nsg27
Nsg55
Nsg35
I01
stp3915
Rp3916
sbg454
sg13
(S'z2630'
p3917
tp3918
Rp3919
(dp3920
g18
g0
(g19
g20
(dp3921
g22
Nsg24
Nsg25
Nsg26
Nsg27
Nsg31
Nsg29
Nsg30
Nsg33
Nsg32
Nsg34
Nsg35
I01
sg28
Nsg36
Nsg37
Nsg38
Nsg39
Nstp3922
Rp3923
sbg454
sg13
(S'z3642'
p3924
tp3925
Rp3926
(dp3927
g18
g0
(g19
g20
(dp3928
g50
Nsg34
Nsg35
I01
sg52
Nsg26
Nsg36
Nsg37
Nsg38
Nsg53
Nsg28
Nsg54
Nsg56
Nsg27
Nsg55
Nsg51
Nstp3929
Rp3930
sbg454
sg13
(S'z3335'
p3931
tp3932
Rp3933
(dp3934
g18
g0
(g19
g20
(dp3935
g34
Nsg22
Nsg35
I01
sg25
Nsg26
Nsg36
Nsg37
Nsg38
Nsg31
Nsg28
Nsg29
Nsg39
Nsg27
Nsg33
Nsg24
Nstp3936
Rp3937
sbg454
sg13
(S'z6166'
p3938
tp3939
Rp3940
(dp3941
g18
g0
(g19
g20
(dp3942
g34
Nsg22
Nsg35
I01
sg25
Nsg26
Nsg36
Nsg37
Nsg38
Nsg31
Nsg28
Nsg29
Nsg39
Nsg27
Nsg33
Nsg24
Nstp3943
Rp3944
sbg454
sg13
(S'z5561'
p3945
tp3946
Rp3947
(dp3948
g18
g0
(g19
g20
(dp3949
g50
Nsg34
Nsg35
I01
sg52
Nsg26
Nsg36
Nsg37
Nsg38
Nsg53
Nsg28
Nsg54
Nsg56
Nsg27
Nsg55
Nsg51
Nstp3950
Rp3951
sbg454
sg13
(S'z1619'
p3952
tp3953
Rp3954
(dp3955
g18
g0
(g19
g20
(dp3956
g22
Nsg24
Nsg25
Nsg26
Nsg27
Nsg31
Nsg29
Nsg30
Nsg33
Nsg32
Nsg34
Nsg35
I01
sg28
Nsg36
Nsg37
Nsg38
Nsg39
Nstp3957
Rp3958
sbg454
sg13
(S'z5760'
p3959
tp3960
Rp3961
(dp3962
g18
g0
(g19
g20
(dp3963
g34
Nsg22
Nsg35
I01
sg25
Nsg26
Nsg36
Nsg37
Nsg38
Nsg31
Nsg28
Nsg29
Nsg39
Nsg27
Nsg33
Nsg24
Nstp3964
Rp3965
sbg454
sg13
(S'z5962'
p3966
tp3967
Rp3968
(dp3969
g18
g0
(g19
g20
(dp3970
g22
Nsg24
Nsg25
Nsg26
Nsg27
Nsg31
Nsg29
Nsg30
Nsg33
Nsg32
Nsg34
Nsg35
I01
sg28
Nsg36
Nsg37
Nsg38
Nsg39
Nstp3971
Rp3972
sbg454
sg13
(S'z2529'
p3973
tp3974
Rp3975
(dp3976
g18
g0
(g19
g20
(dp3977
g50
Nsg34
Nsg35
I01
sg52
Nsg26
Nsg36
Nsg37
Nsg38
Nsg53
Nsg28
Nsg54
Nsg56
Nsg27
Nsg55
Nsg51
Nstp3978
Rp3979
sbg454
sg13
(S'z5660'
p3980
tp3981
Rp3982
(dp3983
g18
g0
(g19
g20
(dp3984
g34
Nsg22
Nsg35
I01
sg25
Nsg26
Nsg36
Nsg37
Nsg38
Nsg31
Nsg28
Nsg29
Nsg39
Nsg27
Nsg33
Nsg24
Nstp3985
Rp3986
sbg454
sg13
(S'z5051'
p3987
tp3988
Rp3989
(dp3990
g18
g0
(g19
g20
(dp3991
g22
Nsg24
Nsg25
Nsg26
Nsg27
Nsg31
Nsg29
Nsg30
Nsg33
Nsg32
Nsg34
Nsg35
I01
sg28
Nsg36
Nsg37
Nsg38
Nsg39
Nstp3992
Rp3993
sbg201
sg13
(S'z4854'
p3994
tp3995
Rp3996
(dp3997
g18
g0
(g19
g20
(dp3998
g50
Nsg34
Nsg51
Nsg52
Nsg26
Nsg36
Nsg37
Nsg38
Nsg53
Nsg28
Nsg54
Nsg56
Nsg27
Nsg55
Nsg35
I01
stp3999
Rp4000
sbg454
sg13
(S'z1922'
p4001
tp4002
Rp4003
(dp4004
g18
g0
(g19
g20
(dp4005
g50
Nsg34
Nsg35
I01
sg52
Nsg26
Nsg36
Nsg37
Nsg38
Nsg53
Nsg28
Nsg54
Nsg56
Nsg27
Nsg55
Nsg51
Nstp4006
Rp4007
sbg454
sg13
(S'z5255'
p4008
tp4009
Rp4010
(dp4011
g18
g0
(g19
g20
(dp4012
g50
Nsg34
Nsg35
I01
sg52
Nsg26
Nsg36
Nsg37
Nsg38
Nsg53
Nsg28
Nsg54
Nsg56
Nsg27
Nsg55
Nsg51
Nstp4013
Rp4014
sbg454
sg13
(S'z6672'
p4015
tp4016
Rp4017
(dp4018
g18
g0
(g19
g20
(dp4019
g50
Nsg34
Nsg35
I01
sg52
Nsg26
Nsg36
Nsg37
Nsg38
Nsg53
Nsg28
Nsg54
Nsg56
Nsg27
Nsg55
Nsg51
Nstp4020
Rp4021
sbg454
sg13
(S'z9798'
p4022
tp4023
Rp4024
(dp4025
g18
g0
(g19
g20
(dp4026
g34
Nsg22
Nsg35
I01
sg25
Nsg26
Nsg36
Nsg37
Nsg38
Nsg31
Nsg28
Nsg29
Nsg39
Nsg27
Nsg33
Nsg24
Nstp4027
Rp4028
sbg454
sg13
(S'p37'
p4029
tp4030
Rp4031
(dp4032
g18
g0
(g19
g20
(dp4033
g34
Nsg22
Nsg35
I01
sg25
Nsg26
Nsg36
Nsg37
Nsg38
Nsg31
Nsg28
Nsg29
Nsg39
Nsg27
Nsg33
Nsg24
Nstp4034
Rp4035
sbg454
sg13
(S'z7576'
p4036
tp4037
Rp4038
(dp4039
g18
g0
(g19
g20
(dp4040
g34
Nsg22
Nsg35
I01
sg25
Nsg26
Nsg36
Nsg37
Nsg38
Nsg31
Nsg28
Nsg29
Nsg39
Nsg27
Nsg33
Nsg24
Nstp4041
Rp4042
sbg454
sg13
(S'z6465'
p4043
tp4044
Rp4045
(dp4046
g18
g0
(g19
g20
(dp4047
g50
Nsg34
Nsg51
Nsg52
Nsg26
Nsg36
Nsg37
Nsg38
Nsg53
Nsg28
Nsg54
Nsg56
Nsg27
Nsg55
Nsg35
I01
stp4048
Rp4049
sbg454
sg13
(S'z2530'
p4050
tp4051
Rp4052
(dp4053
g18
g0
(g19
g20
(dp4054
g50
Nsg34
Nsg51
Nsg52
Nsg26
Nsg36
Nsg37
Nsg38
Nsg53
Nsg28
Nsg54
Nsg56
Nsg27
Nsg55
Nsg35
I01
stp4055
Rp4056
sbg454
sg13
(S'q1'
p4057
tp4058
Rp4059
(dp4060
g18
g0
(g19
g20
(dp4061
g50
Nsg51
Nsg52
Nsg26
Nsg27
Nsg37
Nsg53
Nsg29
Nsg137
Nsg55
Nsg138
Nsg34
Nsg35
I01
sg36
Nsg28
Nsg38
Nsg56
Nstp4062
Rp4063
sbg201
sg13
(S'z9496'
p4064
tp4065
Rp4066
(dp4067
g18
g0
(g19
g20
(dp4068
g34
Nsg22
Nsg35
I01
sg25
Nsg26
Nsg36
Nsg37
Nsg38
Nsg31
Nsg28
Nsg29
Nsg39
Nsg27
Nsg33
Nsg24
Nstp4069
Rp4070
sbg454
sg13
(S'z6670'
p4071
tp4072
Rp4073
(dp4074
g18
g0
(g19
g20
(dp4075
g50
Nsg51
Nsg52
Nsg26
Nsg27
Nsg37
Nsg28
Nsg54
Nsg137
Nsg55
Nsg138
Nsg34
Nsg35
I01
sg36
Nsg53
Nsg38
Nsg56
Nstp4076
Rp4077
sbg454
sg13
(S'z7579'
p4078
tp4079
Rp4080
(dp4081
g18
g0
(g19
g20
(dp4082
g34
Nsg22
Nsg35
I01
sg25
Nsg26
Nsg36
Nsg37
Nsg38
Nsg31
Nsg28
Nsg29
Nsg39
Nsg27
Nsg33
Nsg24
Nstp4083
Rp4084
sbg454
sg13
(S'z1215'
p4085
tp4086
Rp4087
(dp4088
g18
g0
(g19
g20
(dp4089
g50
Nsg51
Nsg52
Nsg26
Nsg27
Nsg37
Nsg53
Nsg29
Nsg137
Nsg55
Nsg138
Nsg34
Nsg35
I01
sg36
Nsg28
Nsg38
Nsg56
Nstp4090
Rp4091
sbg454
sg13
(S'p45'
p4092
tp4093
Rp4094
(dp4095
g18
g0
(g19
g20
(dp4096
g34
Nsg22
Nsg35
I01
sg25
Nsg26
Nsg36
Nsg37
Nsg38
Nsg31
Nsg28
Nsg29
Nsg39
Nsg27
Nsg33
Nsg24
Nstp4097
Rp4098
sbg454
sg13
(S'z3436'
p4099
tp4100
Rp4101
(dp4102
g18
g0
(g19
g20
(dp4103
g34
Nsg22
Nsg35
I01
sg25
Nsg26
Nsg36
Nsg37
Nsg38
Nsg31
Nsg28
Nsg29
Nsg39
Nsg27
Nsg33
Nsg24
Nstp4104
Rp4105
sbg454
sg13
(S'z1315'
p4106
tp4107
Rp4108
(dp4109
g18
g0
(g19
g20
(dp4110
g50
Nsg51
Nsg52
Nsg26
Nsg27
Nsg53
Nsg54
Nsg30
Nsg55
Nsg32
Nsg34
Nsg35
I01
sg28
Nsg36
Nsg37
Nsg38
Nsg56
Nstp4111
Rp4112
sbg454
sg13
(S'p49'
p4113
tp4114
Rp4115
(dp4116
g18
g0
(g19
g20
(dp4117
g34
Nsg22
Nsg35
I01
sg25
Nsg26
Nsg36
Nsg37
Nsg38
Nsg31
Nsg28
Nsg29
Nsg39
Nsg27
Nsg33
Nsg24
Nstp4118
Rp4119
sbg454
sg13
(S'z9194'
p4120
tp4121
Rp4122
(dp4123
g18
g0
(g19
g20
(dp4124
g34
Nsg22
Nsg35
I01
sg25
Nsg26
Nsg36
Nsg37
Nsg38
Nsg31
Nsg28
Nsg29
Nsg39
Nsg27
Nsg33
Nsg24
Nstp4125
Rp4126
sbg454
sg13
(S'z2730'
p4127
tp4128
Rp4129
(dp4130
g18
g0
(g19
g20
(dp4131
g34
Nsg22
Nsg35
I01
sg25
Nsg26
Nsg36
Nsg37
Nsg38
Nsg31
Nsg28
Nsg29
Nsg39
Nsg27
Nsg33
Nsg24
Nstp4132
Rp4133
sbg454
sg13
(S'z4147'
p4134
tp4135
Rp4136
(dp4137
g18
g0
(g19
g20
(dp4138
g50
Nsg34
Nsg51
Nsg52
Nsg26
Nsg36
Nsg37
Nsg38
Nsg53
Nsg28
Nsg54
Nsg56
Nsg27
Nsg55
Nsg35
I01
stp4139
Rp4140
sbg454
sg13
(S'z8892'
p4141
tp4142
Rp4143
(dp4144
g18
g0
(g19
g20
(dp4145
g34
Nsg22
Nsg35
I01
sg26
Nsg36
Nsg37
Nsg38
Nsg28
Nsg27
Nstp4146
Rp4147
sbg454
sg13
(S'z3841'
p4148
tp4149
Rp4150
(dp4151
g18
g0
(g19
g20
(dp4152
g50
Nsg51
Nsg52
Nsg26
Nsg27
Nsg53
Nsg54
Nsg30
Nsg55
Nsg32
Nsg34
Nsg35
I01
sg28
Nsg36
Nsg37
Nsg38
Nsg56
Nstp4153
Rp4154
sbg454
sg13
(S'z5152'
p4155
tp4156
Rp4157
(dp4158
g18
g0
(g19
g20
(dp4159
g22
Nsg24
Nsg25
Nsg26
Nsg27
Nsg31
Nsg29
Nsg30
Nsg33
Nsg32
Nsg34
Nsg35
I01
sg28
Nsg36
Nsg37
Nsg38
Nsg39
Nstp4160
Rp4161
sbg201
sg13
(S'z2023'
p4162
tp4163
Rp4164
(dp4165
g18
g0
(g19
g20
(dp4166
g50
Nsg34
Nsg35
I01
sg52
Nsg26
Nsg36
Nsg37
Nsg38
Nsg53
Nsg28
Nsg54
Nsg56
Nsg27
Nsg55
Nsg51
Nstp4167
Rp4168
sbg454
sg13
(S'z1924'
p4169
tp4170
Rp4171
(dp4172
g18
g0
(g19
g20
(dp4173
g50
Nsg34
Nsg35
I01
sg52
Nsg26
Nsg36
Nsg37
Nsg38
Nsg53
Nsg28
Nsg54
Nsg56
Nsg27
Nsg55
Nsg51
Nstp4174
Rp4175
sbg454
sg13
(S'z5253'
p4176
tp4177
Rp4178
(dp4179
g18
g0
(g19
g20
(dp4180
g50
Nsg51
Nsg52
Nsg26
Nsg27
Nsg53
Nsg54
Nsg30
Nsg55
Nsg32
Nsg34
Nsg35
I01
sg28
Nsg36
Nsg37
Nsg38
Nsg56
Nstp4181
Rp4182
sbg201
sg13
(S'z3940'
p4183
tp4184
Rp4185
(dp4186
g18
g0
(g19
g20
(dp4187
g34
Nsg22
Nsg35
I01
sg25
Nsg26
Nsg36
Nsg37
Nsg38
Nsg31
Nsg28
Nsg29
Nsg39
Nsg27
Nsg33
Nsg24
Nstp4188
Rp4189
sbg454
sg13
(S'z9395'
p4190
tp4191
Rp4192
(dp4193
g18
g0
(g19
g20
(dp4194
g50
Nsg51
Nsg52
Nsg26
Nsg27
Nsg53
Nsg54
Nsg30
Nsg55
Nsg32
Nsg34
Nsg35
I01
sg28
Nsg36
Nsg37
Nsg38
Nsg56
Nstp4195
Rp4196
sbg454
sg13
(S'p26'
p4197
tp4198
Rp4199
(dp4200
g18
g0
(g19
g20
(dp4201
g34
Nsg22
Nsg35
I01
sg25
Nsg26
Nsg36
Nsg37
Nsg38
Nsg31
Nsg28
Nsg29
Nsg39
Nsg27
Nsg33
Nsg24
Nstp4202
Rp4203
sbg454
sg13
(S'z1113'
p4204
tp4205
Rp4206
(dp4207
g18
g0
(g19
g20
(dp4208
g34
Nsg22
Nsg35
I01
sg25
Nsg26
Nsg36
Nsg37
Nsg38
Nsg31
Nsg28
Nsg29
Nsg39
Nsg27
Nsg33
Nsg24
Nstp4209
Rp4210
sbg454
sg13
(S'z2328'
p4211
tp4212
Rp4213
(dp4214
g18
g0
(g19
g20
(dp4215
g50
Nsg34
Nsg51
Nsg52
Nsg26
Nsg36
Nsg37
Nsg38
Nsg53
Nsg28
Nsg54
Nsg56
Nsg27
Nsg55
Nsg35
I01
stp4216
Rp4217
sbg454
sg13
(S'z5860'
p4218
tp4219
Rp4220
(dp4221
g18
g0
(g19
g20
(dp4222
g50
Nsg34
Nsg35
I01
sg52
Nsg26
Nsg36
Nsg37
Nsg38
Nsg53
Nsg28
Nsg54
Nsg56
Nsg27
Nsg55
Nsg51
Nstp4223
Rp4224
sbg454
sg13
(S'z6569'
p4225
tp4226
Rp4227
(dp4228
g18
g0
(g19
g20
(dp4229
g34
Nsg22
Nsg35
I01
sg25
Nsg26
Nsg36
Nsg37
Nsg38
Nsg31
Nsg28
Nsg29
Nsg39
Nsg27
Nsg33
Nsg24
Nstp4230
Rp4231
sbg454
sg13
(S'z4951'
p4232
tp4233
Rp4234
(dp4235
g18
g0
(g19
g20
(dp4236
g50
Nsg34
Nsg35
I01
sg52
Nsg26
Nsg36
Nsg37
Nsg38
Nsg53
Nsg28
Nsg54
Nsg56
Nsg27
Nsg55
Nsg51
Nstp4237
Rp4238
sbg454
sg13
(S'z1719'
p4239
tp4240
Rp4241
(dp4242
g18
g0
(g19
g20
(dp4243
g22
Nsg24
Nsg25
Nsg26
Nsg27
Nsg31
Nsg29
Nsg30
Nsg33
Nsg32
Nsg34
Nsg35
I01
sg28
Nsg36
Nsg37
Nsg38
Nsg39
Nstp4244
Rp4245
sbg454
sg13
(S'z99100'
p4246
tp4247
Rp4248
(dp4249
g18
g0
(g19
g20
(dp4250
g50
Nsg34
Nsg51
Nsg52
Nsg26
Nsg36
Nsg37
Nsg38
Nsg53
Nsg28
Nsg54
Nsg56
Nsg27
Nsg55
Nsg35
I01
stp4251
Rp4252
sbg454
sg13
(S'z1213'
p4253
tp4254
Rp4255
(dp4256
g18
g0
(g19
g20
(dp4257
g22
Nsg24
Nsg25
Nsg26
Nsg27
Nsg31
Nsg29
Nsg30
Nsg33
Nsg32
Nsg34
Nsg35
I01
sg28
Nsg36
Nsg37
Nsg38
Nsg39
Nstp4258
Rp4259
sbg454
sg13
(S'z6971'
p4260
tp4261
Rp4262
(dp4263
g18
g0
(g19
g20
(dp4264
g50
Nsg34
Nsg35
I01
sg52
Nsg26
Nsg36
Nsg37
Nsg38
Nsg53
Nsg28
Nsg54
Nsg56
Nsg27
Nsg55
Nsg51
Nstp4265
Rp4266
sbg454
sg13
(S'z8287'
p4267
tp4268
Rp4269
(dp4270
g18
g0
(g19
g20
(dp4271
g50
Nsg34
Nsg51
Nsg52
Nsg26
Nsg36
Nsg37
Nsg38
Nsg53
Nsg28
Nsg54
Nsg56
Nsg27
Nsg55
Nsg35
I01
stp4272
Rp4273
sbg454
sg13
(S'q34'
p4274
tp4275
Rp4276
(dp4277
g18
g0
(g19
g20
(dp4278
g34
Nsg22
Nsg35
I01
sg26
Nsg36
Nsg37
Nsg38
Nsg28
Nsg27
Nstp4279
Rp4280
sbg454
sg13
(S'z2934'
p4281
tp4282
Rp4283
(dp4284
g18
g0
(g19
g20
(dp4285
g34
Nsg22
Nsg35
I01
sg26
Nsg36
Nsg37
Nsg38
Nsg28
Nsg27
Nstp4286
Rp4287
sbg454
sg13
(S'z4953'
p4288
tp4289
Rp4290
(dp4291
g18
g0
(g19
g20
(dp4292
g50
Nsg34
Nsg35
I01
sg52
Nsg26
Nsg36
Nsg37
Nsg38
Nsg53
Nsg28
Nsg54
Nsg56
Nsg27
Nsg55
Nsg51
Nstp4293
Rp4294
sbg454
sg13
(S'z3843'
p4295
tp4296
Rp4297
(dp4298
g18
g0
(g19
g20
(dp4299
g50
Nsg34
Nsg51
Nsg52
Nsg26
Nsg36
Nsg37
Nsg38
Nsg53
Nsg28
Nsg54
Nsg56
Nsg27
Nsg55
Nsg35
I01
stp4300
Rp4301
sbg454
sg13
(S'q49'
p4302
tp4303
Rp4304
(dp4305
g18
g0
(g19
g20
(dp4306
g34
Nsg22
Nsg35
I01
sg26
Nsg36
Nsg37
Nsg38
Nsg28
Nsg27
Nstp4307
Rp4308
sbg454
sg13
(S'q24'
p4309
tp4310
Rp4311
(dp4312
g18
g0
(g19
g20
(dp4313
g34
Nsg22
Nsg35
I01
sg26
Nsg36
Nsg37
Nsg38
Nsg28
Nsg27
Nstp4314
Rp4315
sbg454
sg13
(S'q19'
p4316
tp4317
Rp4318
(dp4319
g18
g0
(g19
g20
(dp4320
g50
Nsg51
Nsg52
Nsg26
Nsg27
Nsg37
Nsg53
Nsg29
Nsg137
Nsg55
Nsg138
Nsg34
Nsg35
I01
sg36
Nsg28
Nsg38
Nsg56
Nstp4321
Rp4322
sbg454
sg13
(S'p12'
p4323
tp4324
Rp4325
(dp4326
g18
g0
(g19
g20
(dp4327
g34
Nsg22
Nsg35
I01
sg25
Nsg26
Nsg36
Nsg37
Nsg38
Nsg31
Nsg28
Nsg29
Nsg39
Nsg27
Nsg33
Nsg24
Nstp4328
Rp4329
sbg454
sg13
(S'z3539'
p4330
tp4331
Rp4332
(dp4333
g18
g0
(g19
g20
(dp4334
g50
Nsg34
Nsg35
I01
sg52
Nsg26
Nsg36
Nsg37
Nsg38
Nsg53
Nsg28
Nsg54
Nsg56
Nsg27
Nsg55
Nsg51
Nstp4335
Rp4336
sbg454
sg13
(S'z3236'
p4337
tp4338
Rp4339
(dp4340
g18
g0
(g19
g20
(dp4341
g34
Nsg22
Nsg35
I01
sg25
Nsg26
Nsg36
Nsg37
Nsg38
Nsg31
Nsg28
Nsg29
Nsg39
Nsg27
Nsg33
Nsg24
Nstp4342
Rp4343
sbg454
sg13
(S'z3536'
p4344
tp4345
Rp4346
(dp4347
g18
g0
(g19
g20
(dp4348
g50
Nsg51
Nsg52
Nsg26
Nsg27
Nsg53
Nsg54
Nsg30
Nsg55
Nsg32
Nsg34
Nsg35
I01
sg28
Nsg36
Nsg37
Nsg38
Nsg56
Nstp4349
Rp4350
sbg454
sg13
(S'z7681'
p4351
tp4352
Rp4353
(dp4354
g18
g0
(g19
g20
(dp4355
g50
Nsg34
Nsg35
I01
sg52
Nsg26
Nsg36
Nsg37
Nsg38
Nsg53
Nsg28
Nsg54
Nsg56
Nsg27
Nsg55
Nsg51
Nstp4356
Rp4357
sbg454
sg13
(S'z7376'
p4358
tp4359
Rp4360
(dp4361
g18
g0
(g19
g20
(dp4362
g34
Nsg22
Nsg35
I01
sg25
Nsg26
Nsg36
Nsg37
Nsg38
Nsg31
Nsg28
Nsg29
Nsg39
Nsg27
Nsg33
Nsg24
Nstp4363
Rp4364
sbg454
sg13
(S'z6871'
p4365
tp4366
Rp4367
(dp4368
g18
g0
(g19
g20
(dp4369
g50
Nsg51
Nsg52
Nsg26
Nsg27
Nsg53
Nsg54
Nsg30
Nsg55
Nsg32
Nsg34
Nsg35
I01
sg28
Nsg36
Nsg37
Nsg38
Nsg56
Nstp4370
Rp4371
sbg454
sg13
(S'z3032'
p4372
tp4373
Rp4374
(dp4375
g18
g0
(g19
g20
(dp4376
g50
Nsg34
Nsg35
I01
sg52
Nsg26
Nsg36
Nsg37
Nsg38
Nsg53
Nsg28
Nsg54
Nsg56
Nsg27
Nsg55
Nsg51
Nstp4377
Rp4378
sbg454
sg13
(S'z5560'
p4379
tp4380
Rp4381
(dp4382
g18
g0
(g19
g20
(dp4383
g34
Nsg22
Nsg35
I01
sg25
Nsg26
Nsg36
Nsg37
Nsg38
Nsg31
Nsg28
Nsg29
Nsg39
Nsg27
Nsg33
Nsg24
Nstp4384
Rp4385
sbg454
sg13
(S'z1618'
p4386
tp4387
Rp4388
(dp4389
g18
g0
(g19
g20
(dp4390
g22
Nsg24
Nsg25
Nsg26
Nsg27
Nsg31
Nsg29
Nsg30
Nsg33
Nsg32
Nsg34
Nsg35
I01
sg28
Nsg36
Nsg37
Nsg38
Nsg39
Nstp4391
Rp4392
sbg454
sg13
(S'z4247'
p4393
tp4394
Rp4395
(dp4396
g18
g0
(g19
g20
(dp4397
g50
Nsg34
Nsg51
Nsg52
Nsg26
Nsg36
Nsg37
Nsg38
Nsg53
Nsg28
Nsg54
Nsg56
Nsg27
Nsg55
Nsg35
I01
stp4398
Rp4399
sbg454
sg13
(S'q9'
p4400
tp4401
Rp4402
(dp4403
g18
g0
(g19
g20
(dp4404
g34
Nsg22
Nsg35
I01
sg25
Nsg26
Nsg36
Nsg37
Nsg38
Nsg31
Nsg28
Nsg29
Nsg39
Nsg27
Nsg33
Nsg24
Nstp4405
Rp4406
sbg454
sg13
(S'z3033'
p4407
tp4408
Rp4409
(dp4410
g18
g0
(g19
g20
(dp4411
g50
Nsg34
Nsg35
I01
sg52
Nsg26
Nsg36
Nsg37
Nsg38
Nsg53
Nsg28
Nsg54
Nsg56
Nsg27
Nsg55
Nsg51
Nstp4412
Rp4413
sbg454
sg13
(S'z4651'
p4414
tp4415
Rp4416
(dp4417
g18
g0
(g19
g20
(dp4418
g50
Nsg34
Nsg35
I01
sg52
Nsg26
Nsg36
Nsg37
Nsg38
Nsg53
Nsg28
Nsg54
Nsg56
Nsg27
Nsg55
Nsg51
Nstp4419
Rp4420
sbg454
sg13
(S'q36'
p4421
tp4422
Rp4423
(dp4424
g18
g0
(g19
g20
(dp4425
g34
Nsg22
Nsg35
I01
sg26
Nsg36
Nsg37
Nsg38
Nsg28
Nsg27
Nstp4426
Rp4427
sbg454
sg13
(S'z7881'
p4428
tp4429
Rp4430
(dp4431
g18
g0
(g19
g20
(dp4432
g50
Nsg51
Nsg52
Nsg26
Nsg27
Nsg53
Nsg54
Nsg30
Nsg55
Nsg32
Nsg34
Nsg35
I01
sg28
Nsg36
Nsg37
Nsg38
Nsg56
Nstp4433
Rp4434
sbg454
sg13
(S'z4650'
p4435
tp4436
Rp4437
(dp4438
g18
g0
(g19
g20
(dp4439
g50
Nsg34
Nsg35
I01
sg52
Nsg26
Nsg36
Nsg37
Nsg38
Nsg53
Nsg28
Nsg54
Nsg56
Nsg27
Nsg55
Nsg51
Nstp4440
Rp4441
sbg454
sg13
(S'p8'
p4442
tp4443
Rp4444
(dp4445
g18
g0
(g19
g20
(dp4446
g22
Nsg24
Nsg25
Nsg26
Nsg27
Nsg31
Nsg29
Nsg30
Nsg33
Nsg32
Nsg34
Nsg35
I01
sg28
Nsg36
Nsg37
Nsg38
Nsg39
Nstp4447
Rp4448
sbg454
sg13
(S'q22'
p4449
tp4450
Rp4451
(dp4452
g18
g0
(g19
g20
(dp4453
g22
Nsg24
Nsg25
Nsg26
Nsg27
Nsg31
Nsg29
Nsg30
Nsg33
Nsg32
Nsg34
Nsg35
I01
sg28
Nsg36
Nsg37
Nsg38
Nsg39
Nstp4454
Rp4455
sbg454
sg13
(S'z5358'
p4456
tp4457
Rp4458
(dp4459
g18
g0
(g19
g20
(dp4460
g34
Nsg22
Nsg35
I01
sg25
Nsg26
Nsg36
Nsg37
Nsg38
Nsg31
Nsg28
Nsg29
Nsg39
Nsg27
Nsg33
Nsg24
Nstp4461
Rp4462
sbg454
sg13
(S'z1518'
p4463
tp4464
Rp4465
(dp4466
g18
g0
(g19
g20
(dp4467
g22
Nsg24
Nsg25
Nsg26
Nsg27
Nsg31
Nsg29
Nsg30
Nsg33
Nsg32
Nsg34
Nsg35
I01
sg28
Nsg36
Nsg37
Nsg38
Nsg39
Nstp4468
Rp4469
sbg454
sg13
(S'p10'
p4470
tp4471
Rp4472
(dp4473
g18
g0
(g19
g20
(dp4474
g34
Nsg22
Nsg35
I01
sg25
Nsg26
Nsg36
Nsg37
Nsg38
Nsg31
Nsg28
Nsg29
Nsg39
Nsg27
Nsg33
Nsg24
Nstp4475
Rp4476
sbg454
sg13
(S'z7173'
p4477
tp4478
Rp4479
(dp4480
g18
g0
(g19
g20
(dp4481
g22
Nsg24
Nsg25
Nsg26
Nsg27
Nsg31
Nsg29
Nsg30
Nsg33
Nsg32
Nsg34
Nsg35
I01
sg28
Nsg36
Nsg37
Nsg38
Nsg39
Nstp4482
Rp4483
sbg454
sg13
(S'z7778'
p4484
tp4485
Rp4486
(dp4487
g18
g0
(g19
g20
(dp4488
g50
Nsg51
Nsg52
Nsg26
Nsg27
Nsg53
Nsg54
Nsg30
Nsg55
Nsg32
Nsg34
Nsg35
I01
sg28
Nsg36
Nsg37
Nsg38
Nsg56
Nstp4489
Rp4490
sbg454
sg13
(S'z5254'
p4491
tp4492
Rp4493
(dp4494
g18
g0
(g19
g20
(dp4495
g50
Nsg34
Nsg35
I01
sg52
Nsg26
Nsg36
Nsg37
Nsg38
Nsg53
Nsg28
Nsg54
Nsg56
Nsg27
Nsg55
Nsg51
Nstp4496
Rp4497
sbg454
sg13
(S'z7172'
p4498
tp4499
Rp4500
(dp4501
g18
g0
(g19
g20
(dp4502
g22
Nsg24
Nsg25
Nsg26
Nsg27
Nsg31
Nsg29
Nsg30
Nsg33
Nsg32
Nsg34
Nsg35
I01
sg28
Nsg36
Nsg37
Nsg38
Nsg39
Nstp4503
Rp4504
sbg454
sg13
(S'z46'
p4505
tp4506
Rp4507
(dp4508
g18
g0
(g19
g20
(dp4509
g34
Nsg22
Nsg35
I01
sg25
Nsg26
Nsg36
Nsg37
Nsg38
Nsg31
Nsg28
Nsg29
Nsg39
Nsg27
Nsg33
Nsg24
Nstp4510
Rp4511
sbg454
sg13
(S'z2629'
p4512
tp4513
Rp4514
(dp4515
g18
g0
(g19
g20
(dp4516
g50
Nsg34
Nsg35
I01
sg52
Nsg26
Nsg36
Nsg37
Nsg38
Nsg53
Nsg28
Nsg54
Nsg56
Nsg27
Nsg55
Nsg51
Nstp4517
Rp4518
sbg454
sg13
(S'z9799'
p4519
tp4520
Rp4521
(dp4522
g18
g0
(g19
g20
(dp4523
g34
Nsg22
Nsg35
I01
sg25
Nsg26
Nsg36
Nsg37
Nsg38
Nsg31
Nsg28
Nsg29
Nsg39
Nsg27
Nsg33
Nsg24
Nstp4524
Rp4525
sbg454
sg13
(S'z47'
p4526
tp4527
Rp4528
(dp4529
g18
g0
(g19
g20
(dp4530
g50
Nsg34
Nsg35
I01
sg52
Nsg26
Nsg36
Nsg37
Nsg38
Nsg53
Nsg28
Nsg54
Nsg56
Nsg27
Nsg55
Nsg51
Nstp4531
Rp4532
sbg454
sg13
(S'z3440'
p4533
tp4534
Rp4535
(dp4536
g18
g0
(g19
g20
(dp4537
g50
Nsg34
Nsg35
I01
sg52
Nsg26
Nsg36
Nsg37
Nsg38
Nsg53
Nsg28
Nsg54
Nsg56
Nsg27
Nsg55
Nsg51
Nstp4538
Rp4539
sbg454
sg13
(S'z9093'
p4540
tp4541
Rp4542
(dp4543
g18
g0
(g19
g20
(dp4544
g34
Nsg22
Nsg35
I01
sg25
Nsg26
Nsg36
Nsg37
Nsg38
Nsg31
Nsg28
Nsg29
Nsg39
Nsg27
Nsg33
Nsg24
Nstp4545
Rp4546
sbg454
sg13
(S'z2830'
p4547
tp4548
Rp4549
(dp4550
g18
g0
(g19
g20
(dp4551
g34
Nsg22
Nsg35
I01
sg25
Nsg26
Nsg36
Nsg37
Nsg38
Nsg31
Nsg28
Nsg29
Nsg39
Nsg27
Nsg33
Nsg24
Nstp4552
Rp4553
sbg454
sg13
(S'z4044'
p4554
tp4555
Rp4556
(dp4557
g18
g0
(g19
g20
(dp4558
g50
Nsg34
Nsg35
I01
sg52
Nsg26
Nsg36
Nsg37
Nsg38
Nsg53
Nsg28
Nsg54
Nsg56
Nsg27
Nsg55
Nsg51
Nstp4559
Rp4560
sbg454
sg13
(S'z7981'
p4561
tp4562
Rp4563
(dp4564
g18
g0
(g19
g20
(dp4565
g50
Nsg51
Nsg52
Nsg26
Nsg27
Nsg53
Nsg54
Nsg30
Nsg55
Nsg32
Nsg34
Nsg35
I01
sg28
Nsg36
Nsg37
Nsg38
Nsg56
Nstp4566
Rp4567
sbg454
sg13
(S'z3237'
p4568
tp4569
Rp4570
(dp4571
g18
g0
(g19
g20
(dp4572
g34
Nsg22
Nsg35
I01
sg25
Nsg26
Nsg36
Nsg37
Nsg38
Nsg31
Nsg28
Nsg29
Nsg39
Nsg27
Nsg33
Nsg24
Nstp4573
Rp4574
sbg454
sg13
(S'z1516'
p4575
tp4576
Rp4577
(dp4578
g18
g0
(g19
g20
(dp4579
g34
Nsg22
Nsg35
I01
sg25
Nsg26
Nsg36
Nsg37
Nsg38
Nsg31
Nsg28
Nsg29
Nsg39
Nsg27
Nsg33
Nsg24
Nstp4580
Rp4581
sbg454
sg13
(S'z3133'
p4582
tp4583
Rp4584
(dp4585
g18
g0
(g19
g20
(dp4586
g22
Nsg24
Nsg25
Nsg26
Nsg27
Nsg31
Nsg29
Nsg30
Nsg33
Nsg32
Nsg34
Nsg35
I01
sg28
Nsg36
Nsg37
Nsg38
Nsg39
Nstp4587
Rp4588
sbg454
sg13
(S'z8690'
p4589
tp4590
Rp4591
(dp4592
g18
g0
(g19
g20
(dp4593
g50
Nsg51
Nsg52
Nsg26
Nsg27
Nsg53
Nsg54
Nsg30
Nsg55
Nsg32
Nsg34
Nsg35
I01
sg28
Nsg36
Nsg37
Nsg38
Nsg56
Nstp4594
Rp4595
sbg454
sg13
(S'z9193'
p4596
tp4597
Rp4598
(dp4599
g18
g0
(g19
g20
(dp4600
g22
Nsg24
Nsg25
Nsg26
Nsg27
Nsg31
Nsg29
Nsg30
Nsg33
Nsg32
Nsg34
Nsg35
I01
sg28
Nsg36
Nsg37
Nsg38
Nsg39
Nstp4601
Rp4602
sbg454
sg13
(S'z7377'
p4603
tp4604
Rp4605
(dp4606
g18
g0
(g19
g20
(dp4607
g34
Nsg22
Nsg35
I01
sg25
Nsg26
Nsg36
Nsg37
Nsg38
Nsg31
Nsg28
Nsg29
Nsg39
Nsg27
Nsg33
Nsg24
Nstp4608
Rp4609
sbg454
sg13
(S'z3132'
p4610
tp4611
Rp4612
(dp4613
g18
g0
(g19
g20
(dp4614
g50
Nsg51
Nsg52
Nsg26
Nsg27
Nsg53
Nsg54
Nsg30
Nsg55
Nsg32
Nsg34
Nsg35
I01
sg28
Nsg36
Nsg37
Nsg38
Nsg56
Nstp4615
Rp4616
sbg454
sg13
(S'z4549'
p4617
tp4618
Rp4619
(dp4620
g18
g0
(g19
g20
(dp4621
g34
Nsg22
Nsg35
I01
sg25
Nsg26
Nsg36
Nsg37
Nsg38
Nsg31
Nsg28
Nsg29
Nsg39
Nsg27
Nsg33
Nsg24
Nstp4622
Rp4623
sbg454
sg13
(S'z5658'
p4624
tp4625
Rp4626
(dp4627
g18
g0
(g19
g20
(dp4628
g34
Nsg22
Nsg35
I01
sg25
Nsg26
Nsg36
Nsg37
Nsg38
Nsg31
Nsg28
Nsg29
Nsg39
Nsg27
Nsg33
Nsg24
Nstp4629
Rp4630
sbg454
sg13
(S'q31'
p4631
tp4632
Rp4633
(dp4634
g18
g0
(g19
g20
(dp4635
g34
Nsg22
Nsg35
I01
sg26
Nsg36
Nsg37
Nsg38
Nsg28
Nsg27
Nstp4636
Rp4637
sbg454
sg13
(S'z2022'
p4638
tp4639
Rp4640
(dp4641
g18
g0
(g19
g20
(dp4642
g50
Nsg34
Nsg35
I01
sg52
Nsg26
Nsg36
Nsg37
Nsg38
Nsg53
Nsg28
Nsg54
Nsg56
Nsg27
Nsg55
Nsg51
Nstp4643
Rp4644
sbg454
sg13
(S'z4548'
p4645
tp4646
Rp4647
(dp4648
g18
g0
(g19
g20
(dp4649
g34
Nsg22
Nsg35
I01
sg25
Nsg26
Nsg36
Nsg37
Nsg38
Nsg31
Nsg28
Nsg29
Nsg39
Nsg27
Nsg33
Nsg24
Nstp4650
Rp4651
sbg454
sg13
(S'q10'
p4652
tp4653
Rp4654
(dp4655
g18
g0
(g19
g20
(dp4656
g22
Nsg24
Nsg25
Nsg26
Nsg27
Nsg28
Nsg29
Nsg30
Nsg31
Nsg32
Nsg33
Nsg34
Nsg35
I01
sg36
Nsg37
Nsg38
Nsg39
Nstp4657
Rp4658
sbg454
sg13
(S'z4142'
p4659
tp4660
Rp4661
(dp4662
g18
g0
(g19
g20
(dp4663
g34
Nsg22
Nsg35
I01
sg25
Nsg26
Nsg36
Nsg37
Nsg38
Nsg31
Nsg28
Nsg29
Nsg39
Nsg27
Nsg33
Nsg24
Nstp4664
Rp4665
sbg454
sg13
(S'z8182'
p4666
tp4667
Rp4668
(dp4669
g18
g0
(g19
g20
(dp4670
g50
Nsg51
Nsg52
Nsg26
Nsg27
Nsg53
Nsg54
Nsg30
Nsg55
Nsg32
Nsg34
Nsg35
I01
sg28
Nsg36
Nsg37
Nsg38
Nsg56
Nstp4671
Rp4672
sbg454
sg13
(S'z9092'
p4673
tp4674
Rp4675
(dp4676
g18
g0
(g19
g20
(dp4677
g50
Nsg34
Nsg35
I01
sg52
Nsg26
Nsg36
Nsg37
Nsg38
Nsg53
Nsg28
Nsg54
Nsg56
Nsg27
Nsg55
Nsg51
Nstp4678
Rp4679
sbg454
sg13
(S'z3238'
p4680
tp4681
Rp4682
(dp4683
g18
g0
(g19
g20
(dp4684
g50
Nsg34
Nsg35
I01
sg52
Nsg26
Nsg36
Nsg37
Nsg38
Nsg53
Nsg28
Nsg54
Nsg56
Nsg27
Nsg55
Nsg51
Nstp4685
Rp4686
sbg454
sg13
(S'z5455'
p4687
tp4688
Rp4689
(dp4690
g18
g0
(g19
g20
(dp4691
g22
Nsg23
Nsg24
Nsg25
Nsg26
Nsg27
Nsg31
Nsg29
Nsg30
Nsg33
Nsg32
Nsg34
Nsg35
I01
sg28
Nsg36
Nsg37
Nsg38
Nsg39
Nstp4692
Rp4693
sbg454
sg13
(S'p31'
p4694
tp4695
Rp4696
(dp4697
g18
g0
(g19
g20
(dp4698
g34
Nsg22
Nsg35
I01
sg25
Nsg26
Nsg36
Nsg37
Nsg38
Nsg31
Nsg28
Nsg29
Nsg39
Nsg27
Nsg33
Nsg24
Nstp4699
Rp4700
sbg454
sg13
(S'z6162'
p4701
tp4702
Rp4703
(dp4704
g18
g0
(g19
g20
(dp4705
g22
Nsg24
Nsg25
Nsg26
Nsg27
Nsg31
Nsg29
Nsg30
Nsg33
Nsg32
Nsg34
Nsg35
I01
sg28
Nsg36
Nsg37
Nsg38
Nsg39
Nstp4706
Rp4707
sbg454
sg704
g2539
sg13
(S'z4751'
p4708
tp4709
Rp4710
(dp4711
g18
g0
(g19
g20
(dp4712
g34
Nsg22
Nsg35
I01
sg25
Nsg26
Nsg36
Nsg37
Nsg38
Nsg31
Nsg28
Nsg29
Nsg39
Nsg27
Nsg33
Nsg24
Nstp4713
Rp4714
sbg454
sg13
(S'z1316'
p4715
tp4716
Rp4717
(dp4718
g18
g0
(g19
g20
(dp4719
g50
Nsg34
Nsg35
I01
sg52
Nsg26
Nsg36
Nsg37
Nsg38
Nsg53
Nsg28
Nsg54
Nsg56
Nsg27
Nsg55
Nsg51
Nstp4720
Rp4721
sbg454
sg13
(S'z5053'
p4722
tp4723
Rp4724
(dp4725
g18
g0
(g19
g20
(dp4726
g34
Nsg22
Nsg35
I01
sg25
Nsg26
Nsg36
Nsg37
Nsg38
Nsg31
Nsg28
Nsg29
Nsg39
Nsg27
Nsg33
Nsg24
Nstp4727
Rp4728
sbg454
sg13
(S'z5859'
p4729
tp4730
Rp4731
(dp4732
g18
g0
(g19
g20
(dp4733
g50
Nsg51
Nsg52
Nsg26
Nsg27
Nsg53
Nsg54
Nsg30
Nsg55
Nsg32
Nsg34
Nsg35
I01
sg28
Nsg36
Nsg37
Nsg38
Nsg56
Nstp4734
Rp4735
sbg454
sg13
(S'p47'
p4736
tp4737
Rp4738
(dp4739
g18
g0
(g19
g20
(dp4740
g34
Nsg22
Nsg35
I01
sg25
Nsg26
Nsg36
Nsg37
Nsg38
Nsg31
Nsg28
Nsg29
Nsg39
Nsg27
Nsg33
Nsg24
Nstp4741
Rp4742
sbg454
sg13
(S'z8487'
p4743
tp4744
Rp4745
(dp4746
g18
g0
(g19
g20
(dp4747
g50
Nsg51
Nsg52
Nsg26
Nsg27
Nsg37
Nsg53
Nsg29
Nsg137
Nsg55
Nsg138
Nsg34
Nsg35
I01
sg36
Nsg28
Nsg38
Nsg56
Nstp4748
Rp4749
sbg454
sg13
(S'z2526'
p4750
tp4751
Rp4752
(dp4753
g18
g0
(g19
g20
(dp4754
g34
Nsg22
Nsg35
I01
sg25
Nsg26
Nsg36
Nsg37
Nsg38
Nsg31
Nsg28
Nsg29
Nsg39
Nsg27
Nsg33
Nsg24
Nstp4755
Rp4756
sbg454
sg13
(S'z3739'
p4757
tp4758
Rp4759
(dp4760
g18
g0
(g19
g20
(dp4761
g50
Nsg34
Nsg35
I01
sg52
Nsg26
Nsg36
Nsg37
Nsg38
Nsg53
Nsg28
Nsg54
Nsg56
Nsg27
Nsg55
Nsg51
Nstp4762
Rp4763
sbg454
sg13
(S'z23'
p4764
tp4765
Rp4766
(dp4767
g18
g0
(g19
g20
(dp4768
g22
Nsg24
Nsg25
Nsg26
Nsg27
Nsg28
Nsg29
Nsg30
Nsg31
Nsg32
Nsg33
Nsg34
Nsg35
I01
sg36
Nsg37
Nsg38
Nsg39
Nstp4769
Rp4770
sbg201
sg13
(S'z6469'
p4771
tp4772
Rp4773
(dp4774
g18
g0
(g19
g20
(dp4775
g50
Nsg34
Nsg35
I01
sg52
Nsg26
Nsg36
Nsg37
Nsg38
Nsg53
Nsg28
Nsg54
Nsg56
Nsg27
Nsg55
Nsg51
Nstp4776
Rp4777
sbg454
sg13
(S'z2732'
p4778
tp4779
Rp4780
(dp4781
g18
g0
(g19
g20
(dp4782
g50
Nsg34
Nsg35
I01
sg52
Nsg26
Nsg36
Nsg37
Nsg38
Nsg53
Nsg28
Nsg54
Nsg56
Nsg27
Nsg55
Nsg51
Nstp4783
Rp4784
sbg454
sg13
(S'z8890'
p4785
tp4786
Rp4787
(dp4788
g18
g0
(g19
g20
(dp4789
g34
Nsg22
Nsg35
I01
sg25
Nsg26
Nsg36
Nsg37
Nsg38
Nsg31
Nsg28
Nsg29
Nsg39
Nsg27
Nsg33
Nsg24
Nstp4790
Rp4791
sbg454
sg13
(S'z1013'
p4792
tp4793
Rp4794
(dp4795
g18
g0
(g19
g20
(dp4796
g22
Nsg24
Nsg25
Nsg26
Nsg27
Nsg31
Nsg29
Nsg30
Nsg33
Nsg32
Nsg34
Nsg35
I01
sg28
Nsg36
Nsg37
Nsg38
Nsg39
Nstp4797
Rp4798
sbg454
sg13
(S'z1418'
p4799
tp4800
Rp4801
(dp4802
g18
g0
(g19
g20
(dp4803
g34
Nsg22
Nsg35
I01
sg26
Nsg36
Nsg37
Nsg38
Nsg28
Nsg27
Nstp4804
Rp4805
sbg454
sg13
(S'z8485'
p4806
tp4807
Rp4808
(dp4809
g18
g0
(g19
g20
(dp4810
g50
Nsg51
Nsg52
Nsg26
Nsg27
Nsg53
Nsg54
Nsg30
Nsg55
Nsg32
Nsg34
Nsg35
I01
sg28
Nsg36
Nsg37
Nsg38
Nsg56
Nstp4811
Rp4812
sbg454
sg13
(S'z8992'
p4813
tp4814
Rp4815
(dp4816
g18
g0
(g19
g20
(dp4817
g50
Nsg34
Nsg35
I01
sg52
Nsg26
Nsg36
Nsg37
Nsg38
Nsg53
Nsg28
Nsg54
Nsg56
Nsg27
Nsg55
Nsg51
Nstp4818
Rp4819
sbg454
sg13
(S'z6874'
p4820
tp4821
Rp4822
(dp4823
g18
g0
(g19
g20
(dp4824
g50
Nsg34
Nsg35
I01
sg52
Nsg26
Nsg36
Nsg37
Nsg38
Nsg53
Nsg28
Nsg54
Nsg56
Nsg27
Nsg55
Nsg51
Nstp4825
Rp4826
sbg454
sg13
(S'p24'
p4827
tp4828
Rp4829
(dp4830
g18
g0
(g19
g20
(dp4831
g34
Nsg22
Nsg35
I01
sg25
Nsg26
Nsg36
Nsg37
Nsg38
Nsg31
Nsg28
Nsg29
Nsg39
Nsg27
Nsg33
Nsg24
Nstp4832
Rp4833
sbg454
sg13
(S'z7071'
p4834
tp4835
Rp4836
(dp4837
g18
g0
(g19
g20
(dp4838
g22
Nsg24
Nsg25
Nsg26
Nsg27
Nsg31
Nsg29
Nsg30
Nsg33
Nsg32
Nsg34
Nsg35
I01
sg28
Nsg36
Nsg37
Nsg38
Nsg39
Nstp4839
Rp4840
sbg454
sg13
(S'z6570'
p4841
tp4842
Rp4843
(dp4844
g18
g0
(g19
g20
(dp4845
g50
Nsg34
Nsg35
I01
sg52
Nsg26
Nsg36
Nsg37
Nsg38
Nsg53
Nsg28
Nsg54
Nsg56
Nsg27
Nsg55
Nsg51
Nstp4846
Rp4847
sbg454
sg13
(S'p33'
p4848
tp4849
Rp4850
(dp4851
g18
g0
(g19
g20
(dp4852
g34
Nsg22
Nsg35
I01
sg25
Nsg26
Nsg36
Nsg37
Nsg38
Nsg31
Nsg28
Nsg29
Nsg39
Nsg27
Nsg33
Nsg24
Nstp4853
Rp4854
sbg454
sg13
(S'z5862'
p4855
tp4856
Rp4857
(dp4858
g18
g0
(g19
g20
(dp4859
g50
Nsg51
Nsg52
Nsg26
Nsg27
Nsg53
Nsg54
Nsg30
Nsg55
Nsg32
Nsg34
Nsg35
I01
sg28
Nsg36
Nsg37
Nsg38
Nsg56
Nstp4860
Rp4861
sbg454
sg13
(S'p23'
p4862
tp4863
Rp4864
(dp4865
g18
g0
(g19
g20
(dp4866
g50
Nsg51
Nsg52
Nsg26
Nsg27
Nsg37
Nsg53
Nsg29
Nsg137
Nsg55
Nsg138
Nsg34
Nsg35
I01
sg36
Nsg28
Nsg38
Nsg56
Nstp4867
Rp4868
sbg454
sg13
(S'z5055'
p4869
tp4870
Rp4871
(dp4872
g18
g0
(g19
g20
(dp4873
g34
Nsg22
Nsg35
I01
sg25
Nsg26
Nsg36
Nsg37
Nsg38
Nsg31
Nsg28
Nsg29
Nsg39
Nsg27
Nsg33
Nsg24
Nstp4874
Rp4875
sbg454
sg13
(S'z8791'
p4876
tp4877
Rp4878
(dp4879
g18
g0
(g19
g20
(dp4880
g50
Nsg34
Nsg35
I01
sg52
Nsg26
Nsg36
Nsg37
Nsg38
Nsg53
Nsg28
Nsg54
Nsg56
Nsg27
Nsg55
Nsg51
Nstp4881
Rp4882
sbg454
sg13
(S'p9'
p4883
tp4884
Rp4885
(dp4886
g18
g0
(g19
g20
(dp4887
g22
Nsg24
Nsg25
Nsg26
Nsg27
Nsg28
Nsg29
Nsg30
Nsg31
Nsg32
Nsg33
Nsg34
Nsg35
I01
sg36
Nsg37
Nsg38
Nsg39
Nstp4888
Rp4889
sbg454
sg13
(S'z5155'
p4890
tp4891
Rp4892
(dp4893
g18
g0
(g19
g20
(dp4894
g34
Nsg22
Nsg35
I01
sg25
Nsg26
Nsg36
Nsg37
Nsg38
Nsg31
Nsg28
Nsg29
Nsg39
Nsg27
Nsg33
Nsg24
Nstp4895
Rp4896
sbg454
sg13
(S'z2933'
p4897
tp4898
Rp4899
(dp4900
g18
g0
(g19
g20
(dp4901
g34
Nsg22
Nsg35
I01
sg25
Nsg26
Nsg36
Nsg37
Nsg38
Nsg31
Nsg28
Nsg29
Nsg39
Nsg27
Nsg33
Nsg24
Nstp4902
Rp4903
sbg454
sg13
(S'z7779'
p4904
tp4905
Rp4906
(dp4907
g18
g0
(g19
g20
(dp4908
g50
Nsg34
Nsg35
I01
sg52
Nsg26
Nsg36
Nsg37
Nsg38
Nsg53
Nsg28
Nsg54
Nsg56
Nsg27
Nsg55
Nsg51
Nstp4909
Rp4910
sbg454
sg13
(S'z1519'
p4911
tp4912
Rp4913
(dp4914
g18
g0
(g19
g20
(dp4915
g34
Nsg22
Nsg35
I01
sg26
Nsg36
Nsg37
Nsg38
Nsg28
Nsg27
Nstp4916
Rp4917
sbg454
sg13
(S'q44'
p4918
tp4919
Rp4920
(dp4921
g18
g0
(g19
g20
(dp4922
g22
Nsg24
Nsg25
Nsg26
Nsg27
Nsg28
Nsg30
Nsg31
Nsg32
Nsg33
Nsg34
Nsg35
I01
sg36
Nsg37
Nsg38
Nsg39
Nstp4923
Rp4924
sbg454
sg13
(S'z6669'
p4925
tp4926
Rp4927
(dp4928
g18
g0
(g19
g20
(dp4929
g34
Nsg22
Nsg35
I01
sg25
Nsg26
Nsg36
Nsg37
Nsg38
Nsg31
Nsg28
Nsg29
Nsg39
Nsg27
Nsg33
Nsg24
Nstp4930
Rp4931
sbg454
sg13
(S'p13'
p4932
tp4933
Rp4934
(dp4935
g18
g0
(g19
g20
(dp4936
g34
Nsg22
Nsg35
I01
sg25
Nsg26
Nsg36
Nsg37
Nsg38
Nsg31
Nsg28
Nsg29
Nsg39
Nsg27
Nsg33
Nsg24
Nstp4937
Rp4938
sbg454
sg13
(S'z3439'
p4939
tp4940
Rp4941
(dp4942
g18
g0
(g19
g20
(dp4943
g50
Nsg34
Nsg35
I01
sg52
Nsg26
Nsg36
Nsg37
Nsg38
Nsg53
Nsg28
Nsg54
Nsg56
Nsg27
Nsg55
Nsg51
Nstp4944
Rp4945
sbg454
sg13
(S'z5659'
p4946
tp4947
Rp4948
(dp4949
g18
g0
(g19
g20
(dp4950
g34
Nsg22
Nsg35
I01
sg25
Nsg26
Nsg36
Nsg37
Nsg38
Nsg31
Nsg28
Nsg29
Nsg39
Nsg27
Nsg33
Nsg24
Nstp4951
Rp4952
sbg454
sg13
(S'z4449'
p4953
tp4954
Rp4955
(dp4956
g18
g0
(g19
g20
(dp4957
g34
Nsg22
Nsg35
I01
sg25
Nsg26
Nsg36
Nsg37
Nsg38
Nsg31
Nsg28
Nsg29
Nsg39
Nsg27
Nsg33
Nsg24
Nstp4958
Rp4959
sbg454
sg13
(S'z6368'
p4960
tp4961
Rp4962
(dp4963
g18
g0
(g19
g20
(dp4964
g50
Nsg34
Nsg35
I01
sg52
Nsg26
Nsg36
Nsg37
Nsg38
Nsg53
Nsg28
Nsg54
Nsg56
Nsg27
Nsg55
Nsg51
Nstp4965
Rp4966
sbg454
sg13
(S'z3235'
p4967
tp4968
Rp4969
(dp4970
g18
g0
(g19
g20
(dp4971
g22
Nsg24
Nsg25
Nsg26
Nsg27
Nsg31
Nsg29
Nsg30
Nsg33
Nsg32
Nsg34
Nsg35
I01
sg28
Nsg36
Nsg37
Nsg38
Nsg39
Nstp4972
Rp4973
sbg454
sg13
(S'z8991'
p4974
tp4975
Rp4976
(dp4977
g18
g0
(g19
g20
(dp4978
g50
Nsg34
Nsg35
I01
sg52
Nsg26
Nsg36
Nsg37
Nsg38
Nsg53
Nsg28
Nsg54
Nsg56
Nsg27
Nsg55
Nsg51
Nstp4979
Rp4980
sbg454
sg13
(S'z4245'
p4981
tp4982
Rp4983
(dp4984
g18
g0
(g19
g20
(dp4985
g50
Nsg34
Nsg35
I01
sg52
Nsg26
Nsg36
Nsg37
Nsg38
Nsg53
Nsg28
Nsg54
Nsg56
Nsg27
Nsg55
Nsg51
Nstp4986
Rp4987
sbg454
sg13
(S'z3035'
p4988
tp4989
Rp4990
(dp4991
g18
g0
(g19
g20
(dp4992
g50
Nsg51
Nsg52
Nsg26
Nsg27
Nsg37
Nsg53
Nsg137
Nsg55
Nsg138
Nsg34
Nsg35
I01
sg36
Nsg28
Nsg38
Nsg56
Nstp4993
Rp4994
sbg454
sg13
(S'z5558'
p4995
tp4996
Rp4997
(dp4998
g18
g0
(g19
g20
(dp4999
g50
Nsg51
Nsg52
Nsg26
Nsg27
Nsg37
Nsg53
Nsg29
Nsg137
Nsg55
Nsg138
Nsg34
Nsg35
I01
sg36
Nsg28
Nsg38
Nsg56
Nstp5000
Rp5001
sbg454
sg13
(S'q30'
p5002
tp5003
Rp5004
(dp5005
g18
g0
(g19
g20
(dp5006
g34
Nsg22
Nsg35
I01
sg26
Nsg36
Nsg37
Nsg38
Nsg28
Nsg27
Nstp5007
Rp5008
sbg454
sg13
(S'z5964'
p5009
tp5010
Rp5011
(dp5012
g18
g0
(g19
g20
(dp5013
g34
Nsg22
Nsg35
I01
sg25
Nsg26
Nsg36
Nsg37
Nsg38
Nsg31
Nsg28
Nsg29
Nsg39
Nsg27
Nsg33
Nsg24
Nstp5014
Rp5015
sbg454
sg13
(S'z4652'
p5016
tp5017
Rp5018
(dp5019
g18
g0
(g19
g20
(dp5020
g50
Nsg34
Nsg35
I01
sg52
Nsg26
Nsg36
Nsg37
Nsg38
Nsg53
Nsg28
Nsg54
Nsg56
Nsg27
Nsg55
Nsg51
Nstp5021
Rp5022
sbg454
sg13
(S'z5157'
p5023
tp5024
Rp5025
(dp5026
g18
g0
(g19
g20
(dp5027
g50
Nsg34
Nsg35
I01
sg52
Nsg26
Nsg36
Nsg37
Nsg38
Nsg53
Nsg28
Nsg54
Nsg56
Nsg27
Nsg55
Nsg51
Nstp5028
Rp5029
sbg454
sg13
(S'z2931'
p5030
tp5031
Rp5032
(dp5033
g18
g0
(g19
g20
(dp5034
g22
Nsg24
Nsg25
Nsg26
Nsg27
Nsg31
Nsg29
Nsg30
Nsg33
Nsg32
Nsg34
Nsg35
I01
sg28
Nsg36
Nsg37
Nsg38
Nsg39
Nstp5035
Rp5036
sbg454
sg13
(S'z8993'
p5037
tp5038
Rp5039
(dp5040
g18
g0
(g19
g20
(dp5041
g34
Nsg22
Nsg35
I01
sg26
Nsg36
Nsg37
Nsg38
Nsg28
Nsg27
Nstp5042
Rp5043
sbg454
sg13
(S'q20'
p5044
tp5045
Rp5046
(dp5047
g18
g0
(g19
g20
(dp5048
g34
Nsg22
Nsg35
I01
sg25
Nsg26
Nsg36
Nsg37
Nsg38
Nsg31
Nsg28
Nsg29
Nsg39
Nsg27
Nsg33
Nsg24
Nstp5049
Rp5050
sbg454
sg13
(S'p11'
p5051
tp5052
Rp5053
(dp5054
g18
g0
(g19
g20
(dp5055
g34
Nsg50
Nsg35
I01
sg52
Nsg26
Nsg36
Nsg37
Nsg38
Nsg53
Nsg28
Nsg54
Nsg56
Nsg27
Nsg55
Nsg51
Nstp5056
Rp5057
sbg454
sg13
(S'z4853'
p5058
tp5059
Rp5060
(dp5061
g18
g0
(g19
g20
(dp5062
g34
Nsg22
Nsg35
I01
sg25
Nsg26
Nsg36
Nsg37
Nsg38
Nsg31
Nsg28
Nsg29
Nsg39
Nsg27
Nsg33
Nsg24
Nstp5063
Rp5064
sbg454
sg13
(S'z5457'
p5065
tp5066
Rp5067
(dp5068
g18
g0
(g19
g20
(dp5069
g22
Nsg24
Nsg25
Nsg26
Nsg27
Nsg31
Nsg29
Nsg30
Nsg33
Nsg32
Nsg34
Nsg35
I01
sg28
Nsg36
Nsg37
Nsg38
Nsg39
Nstp5070
Rp5071
sbg454
sg13
(S'z4143'
p5072
tp5073
Rp5074
(dp5075
g18
g0
(g19
g20
(dp5076
g34
Nsg22
Nsg35
I01
sg25
Nsg26
Nsg36
Nsg37
Nsg38
Nsg31
Nsg28
Nsg29
Nsg39
Nsg27
Nsg33
Nsg24
Nstp5077
Rp5078
sbg454
sg13
(S'z4852'
p5079
tp5080
Rp5081
(dp5082
g18
g0
(g19
g20
(dp5083
g22
Nsg24
Nsg25
Nsg26
Nsg27
Nsg31
Nsg29
Nsg30
Nsg33
Nsg32
Nsg34
Nsg35
I01
sg28
Nsg36
Nsg37
Nsg38
Nsg39
Nstp5084
Rp5085
sbg454
sg13
(S'z9495'
p5086
tp5087
Rp5088
(dp5089
g18
g0
(g19
g20
(dp5090
g50
Nsg34
Nsg35
I01
sg52
Nsg26
Nsg36
Nsg37
Nsg38
Nsg53
Nsg28
Nsg54
Nsg56
Nsg27
Nsg55
Nsg51
Nstp5091
Rp5092
sbg454
sg13
(S'z7174'
p5093
tp5094
Rp5095
(dp5096
g18
g0
(g19
g20
(dp5097
g34
Nsg22
Nsg35
I01
sg25
Nsg26
Nsg36
Nsg37
Nsg38
Nsg31
Nsg28
Nsg29
Nsg39
Nsg27
Nsg33
Nsg24
Nstp5098
Rp5099
sbg454
sg13
(S'z1216'
p5100
tp5101
Rp5102
(dp5103
g18
g0
(g19
g20
(dp5104
g34
Nsg22
Nsg35
I01
sg26
Nsg36
Nsg37
Nsg38
Nsg28
Nsg27
Nstp5105
Rp5106
sbg454
sg13
(S'z4753'
p5107
tp5108
Rp5109
(dp5110
g18
g0
(g19
g20
(dp5111
g50
Nsg34
Nsg35
I01
sg52
Nsg26
Nsg36
Nsg37
Nsg38
Nsg53
Nsg28
Nsg54
Nsg56
Nsg27
Nsg55
Nsg51
Nstp5112
Rp5113
sbg454
sg13
(S'z2627'
p5114
tp5115
Rp5116
(dp5117
g18
g0
(g19
g20
(dp5118
g50
Nsg34
Nsg51
Nsg52
Nsg26
Nsg36
Nsg37
Nsg38
Nsg53
Nsg28
Nsg54
Nsg56
Nsg27
Nsg55
Nsg35
I01
stp5119
Rp5120
sbg454
sg13
(S'z3136'
p5121
tp5122
Rp5123
(dp5124
g18
g0
(g19
g20
(dp5125
g34
Nsg22
Nsg35
I01
sg26
Nsg36
Nsg37
Nsg38
Nsg28
Nsg27
Nstp5126
Rp5127
sbg454
sg13
(S'z6974'
p5128
tp5129
Rp5130
(dp5131
g18
g0
(g19
g20
(dp5132
g50
Nsg34
Nsg35
I01
sg52
Nsg26
Nsg36
Nsg37
Nsg38
Nsg53
Nsg28
Nsg54
Nsg56
Nsg27
Nsg55
Nsg51
Nstp5133
Rp5134
sbg454
sg13
(S'z8586'
p5135
tp5136
Rp5137
(dp5138
g18
g0
(g19
g20
(dp5139
g50
Nsg51
Nsg52
Nsg26
Nsg27
Nsg37
Nsg53
Nsg29
Nsg137
Nsg55
Nsg138
Nsg34
Nsg35
I01
sg36
Nsg28
Nsg38
Nsg56
Nstp5140
Rp5141
sbg454
sg13
(S'z45'
p5142
tp5143
Rp5144
(dp5145
g18
g0
(g19
g20
(dp5146
g50
Nsg51
Nsg52
Nsg26
Nsg27
Nsg37
Nsg53
Nsg29
Nsg137
Nsg55
Nsg138
Nsg34
Nsg35
I01
sg36
Nsg28
Nsg38
Nsg56
Nstp5147
Rp5148
sbg201
sg13
(S'z5052'
p5149
tp5150
Rp5151
(dp5152
g18
g0
(g19
g20
(dp5153
g34
Nsg22
Nsg35
I01
sg25
Nsg26
Nsg36
Nsg37
Nsg38
Nsg31
Nsg28
Nsg29
Nsg39
Nsg27
Nsg33
Nsg24
Nstp5154
Rp5155
sbg454
sg13
(S'z9296'
p5156
tp5157
Rp5158
(dp5159
g18
g0
(g19
g20
(dp5160
g50
Nsg51
Nsg52
Nsg26
Nsg27
Nsg37
Nsg28
Nsg54
Nsg137
Nsg55
Nsg138
Nsg34
Nsg35
I01
sg36
Nsg53
Nsg38
Nsg56
Nstp5161
Rp5162
sbg454
sg13
(S'z4046'
p5163
tp5164
Rp5165
(dp5166
g18
g0
(g19
g20
(dp5167
g50
Nsg34
Nsg51
Nsg52
Nsg26
Nsg36
Nsg37
Nsg38
Nsg53
Nsg28
Nsg54
Nsg56
Nsg27
Nsg55
Nsg35
I01
stp5168
Rp5169
sbg454
sg13
(S'z7475'
p5170
tp5171
Rp5172
(dp5173
g18
g0
(g19
g20
(dp5174
g34
Nsg22
Nsg35
I01
sg25
Nsg26
Nsg36
Nsg37
Nsg38
Nsg31
Nsg28
Nsg29
Nsg39
Nsg27
Nsg33
Nsg24
Nstp5175
Rp5176
sbg454
sg13
(S'z5357'
p5177
tp5178
Rp5179
(dp5180
g18
g0
(g19
g20
(dp5181
g50
Nsg34
Nsg35
I01
sg52
Nsg26
Nsg36
Nsg37
Nsg38
Nsg53
Nsg28
Nsg54
Nsg56
Nsg27
Nsg55
Nsg51
Nstp5182
Rp5183
sbg454
sg13
(S'z8689'
p5184
tp5185
Rp5186
(dp5187
g18
g0
(g19
g20
(dp5188
g34
Nsg22
Nsg35
I01
sg25
Nsg26
Nsg36
Nsg37
Nsg38
Nsg31
Nsg28
Nsg29
Nsg39
Nsg27
Nsg33
Nsg24
Nstp5189
Rp5190
sbg454
sg13
(S'p17'
p5191
tp5192
Rp5193
(dp5194
g18
g0
(g19
g20
(dp5195
g34
Nsg22
Nsg35
I01
sg25
Nsg26
Nsg36
Nsg37
Nsg38
Nsg31
Nsg28
Nsg29
Nsg39
Nsg27
Nsg33
Nsg24
Nstp5196
Rp5197
sbg454
sg13
(S'z7983'
p5198
tp5199
Rp5200
(dp5201
g18
g0
(g19
g20
(dp5202
g50
Nsg51
Nsg52
Nsg26
Nsg27
Nsg37
Nsg28
Nsg54
Nsg137
Nsg55
Nsg138
Nsg34
Nsg35
I01
sg36
Nsg53
Nsg38
Nsg56
Nstp5203
Rp5204
sbg454
sg13
(S'z4041'
p5205
tp5206
Rp5207
(dp5208
g18
g0
(g19
g20
(dp5209
g50
Nsg51
Nsg52
Nsg26
Nsg27
Nsg53
Nsg54
Nsg30
Nsg55
Nsg32
Nsg34
Nsg35
I01
sg28
Nsg36
Nsg37
Nsg38
Nsg56
Nstp5210
Rp5211
sbg454
sg13
(S'z7375'
p5212
tp5213
Rp5214
(dp5215
g18
g0
(g19
g20
(dp5216
g22
Nsg24
Nsg25
Nsg26
Nsg27
Nsg31
Nsg29
Nsg30
Nsg33
Nsg32
Nsg34
Nsg35
I01
sg28
Nsg36
Nsg37
Nsg38
Nsg39
Nstp5217
Rp5218
sbg454
sg13
(S'z3134'
p5219
tp5220
Rp5221
(dp5222
g18
g0
(g19
g20
(dp5223
g34
Nsg22
Nsg35
I01
sg25
Nsg26
Nsg36
Nsg37
Nsg38
Nsg31
Nsg28
Nsg29
Nsg39
Nsg27
Nsg33
Nsg24
Nstp5224
Rp5225
sbg454
sg13
(S'z7073'
p5226
tp5227
Rp5228
(dp5229
g18
g0
(g19
g20
(dp5230
g34
Nsg22
Nsg35
I01
sg25
Nsg26
Nsg36
Nsg37
Nsg38
Nsg31
Nsg28
Nsg29
Nsg39
Nsg27
Nsg33
Nsg24
Nstp5231
Rp5232
sbg454
sg13
(S'z8891'
p5233
tp5234
Rp5235
(dp5236
g18
g0
(g19
g20
(dp5237
g34
Nsg22
Nsg35
I01
sg25
Nsg26
Nsg36
Nsg37
Nsg38
Nsg31
Nsg28
Nsg29
Nsg39
Nsg27
Nsg33
Nsg24
Nstp5238
Rp5239
sbg454
sg13
(S'z7883'
p5240
tp5241
Rp5242
(dp5243
g18
g0
(g19
g20
(dp5244
g50
Nsg34
Nsg51
Nsg52
Nsg26
Nsg36
Nsg37
Nsg38
Nsg53
Nsg28
Nsg54
Nsg56
Nsg27
Nsg55
Nsg35
I01
stp5245
Rp5246
sbg454
sg13
(S'z7374'
p5247
tp5248
Rp5249
(dp5250
g18
g0
(g19
g20
(dp5251
g50
Nsg34
Nsg51
Nsg52
Nsg26
Nsg36
Nsg37
Nsg38
Nsg53
Nsg28
Nsg54
Nsg56
Nsg27
Nsg55
Nsg35
I01
stp5252
Rp5253
sbg454
sg13
(S'z2024'
p5254
tp5255
Rp5256
(dp5257
g18
g0
(g19
g20
(dp5258
g22
Nsg24
Nsg25
Nsg26
Nsg27
Nsg31
Nsg29
Nsg30
Nsg33
Nsg32
Nsg34
Nsg35
I01
sg28
Nsg36
Nsg37
Nsg38
Nsg39
Nstp5259
Rp5260
sbg454
sg13
(S'p21'
p5261
tp5262
Rp5263
(dp5264
g18
g0
(g19
g20
(dp5265
g34
Nsg22
Nsg35
I01
sg25
Nsg26
Nsg36
Nsg37
Nsg38
Nsg31
Nsg28
Nsg29
Nsg39
Nsg27
Nsg33
Nsg24
Nstp5266
Rp5267
sbg454
sg13
(S'q16'
p5268
tp5269
Rp5270
(dp5271
g18
g0
(g19
g20
(dp5272
g22
Nsg24
Nsg25
Nsg26
Nsg27
Nsg31
Nsg29
Nsg30
Nsg33
Nsg32
Nsg34
Nsg35
I01
sg28
Nsg36
Nsg37
Nsg38
Nsg39
Nstp5273
Rp5274
sbg454
sg13
(S'z7176'
p5275
tp5276
Rp5277
(dp5278
g18
g0
(g19
g20
(dp5279
g22
Nsg24
Nsg25
Nsg26
Nsg27
Nsg28
Nsg30
Nsg31
Nsg32
Nsg33
Nsg34
Nsg35
I01
sg36
Nsg37
Nsg38
Nsg39
Nstp5280
Rp5281
sbg454
sg13
(S'z2025'
p5282
tp5283
Rp5284
(dp5285
g18
g0
(g19
g20
(dp5286
g50
Nsg34
Nsg51
Nsg52
Nsg26
Nsg36
Nsg37
Nsg38
Nsg53
Nsg28
Nsg54
Nsg56
Nsg27
Nsg55
Nsg35
I01
stp5287
Rp5288
sbg454
sg13
(S'p36'
p5289
tp5290
Rp5291
(dp5292
g18
g0
(g19
g20
(dp5293
g34
Nsg22
Nsg35
I01
sg25
Nsg26
Nsg36
Nsg37
Nsg38
Nsg31
Nsg28
Nsg29
Nsg39
Nsg27
Nsg33
Nsg24
Nstp5294
Rp5295
sbg454
sg13
(S'z6263'
p5296
tp5297
Rp5298
(dp5299
g18
g0
(g19
g20
(dp5300
g22
Nsg24
Nsg25
Nsg26
Nsg27
Nsg31
Nsg29
Nsg30
Nsg33
Nsg32
Nsg34
Nsg35
I01
sg28
Nsg36
Nsg37
Nsg38
Nsg39
Nstp5301
Rp5302
sbg454
sg13
(S'z6972'
p5303
tp5304
Rp5305
(dp5306
g18
g0
(g19
g20
(dp5307
g50
Nsg51
Nsg52
Nsg26
Nsg27
Nsg53
Nsg54
Nsg30
Nsg55
Nsg32
Nsg34
Nsg35
I01
sg28
Nsg36
Nsg37
Nsg38
Nsg56
Nstp5308
Rp5309
sbg454
sg13
(S'z3942'
p5310
tp5311
Rp5312
(dp5313
g18
g0
(g19
g20
(dp5314
g22
Nsg24
Nsg25
Nsg26
Nsg27
Nsg31
Nsg29
Nsg30
Nsg33
Nsg32
Nsg34
Nsg35
I01
sg28
Nsg36
Nsg37
Nsg38
Nsg39
Nstp5315
Rp5316
sbg454
sg13
(S'z8184'
p5317
tp5318
Rp5319
(dp5320
g18
g0
(g19
g20
(dp5321
g50
Nsg34
Nsg35
I01
sg52
Nsg26
Nsg36
Nsg37
Nsg38
Nsg53
Nsg28
Nsg54
Nsg56
Nsg27
Nsg55
Nsg51
Nstp5322
Rp5323
sbg454
sg13
(S'z9094'
p5324
tp5325
Rp5326
(dp5327
g18
g0
(g19
g20
(dp5328
g34
Nsg22
Nsg35
I01
sg26
Nsg36
Nsg37
Nsg38
Nsg28
Nsg27
Nstp5329
Rp5330
sbg454
sg13
(S'z2125'
p5331
tp5332
Rp5333
(dp5334
g18
g0
(g19
g20
(dp5335
g50
Nsg34
Nsg51
Nsg52
Nsg26
Nsg36
Nsg37
Nsg38
Nsg53
Nsg28
Nsg54
Nsg56
Nsg27
Nsg55
Nsg35
I01
stp5336
Rp5337
sbg454
sg13
(S'z3639'
p5338
tp5339
Rp5340
(dp5341
g18
g0
(g19
g20
(dp5342
g50
Nsg51
Nsg52
Nsg26
Nsg27
Nsg53
Nsg54
Nsg30
Nsg55
Nsg32
Nsg34
Nsg35
I01
sg28
Nsg36
Nsg37
Nsg38
Nsg56
Nstp5343
Rp5344
sbg454
sg13
(S'z34'
p5345
tp5346
Rp5347
(dp5348
g18
g0
(g19
g20
(dp5349
g50
Nsg51
Nsg52
Nsg26
Nsg27
Nsg53
Nsg54
Nsg30
Nsg55
Nsg32
Nsg34
Nsg35
I01
sg28
Nsg36
Nsg37
Nsg38
Nsg56
Nstp5350
Rp5351
sbg201
sg13
(S'z7880'
p5352
tp5353
Rp5354
(dp5355
g18
g0
(g19
g20
(dp5356
g50
Nsg34
Nsg35
I01
sg52
Nsg26
Nsg36
Nsg37
Nsg38
Nsg53
Nsg28
Nsg54
Nsg56
Nsg27
Nsg55
Nsg51
Nstp5357
Rp5358
sbg454
sg13
(S'z6667'
p5359
tp5360
Rp5361
(dp5362
g18
g0
(g19
g20
(dp5363
g50
Nsg51
Nsg52
Nsg26
Nsg27
Nsg53
Nsg54
Nsg30
Nsg55
Nsg32
Nsg34
Nsg35
I01
sg28
Nsg36
Nsg37
Nsg38
Nsg56
Nstp5364
Rp5365
sbg454
sg13
(S'z4246'
p5366
tp5367
Rp5368
(dp5369
g18
g0
(g19
g20
(dp5370
g34
Nsg22
Nsg35
I01
sg25
Nsg26
Nsg36
Nsg37
Nsg38
Nsg31
Nsg28
Nsg29
Nsg39
Nsg27
Nsg33
Nsg24
Nstp5371
Rp5372
sbg454
sg13
(S'z9597'
p5373
tp5374
Rp5375
(dp5376
g18
g0
(g19
g20
(dp5377
g22
Nsg24
Nsg25
Nsg26
Nsg27
Nsg31
Nsg29
Nsg30
Nsg33
Nsg32
Nsg34
Nsg35
I01
sg28
Nsg36
Nsg37
Nsg38
Nsg39
Nstp5378
Rp5379
sbg454
sg13
(S'z2325'
p5380
tp5381
Rp5382
(dp5383
g18
g0
(g19
g20
(dp5384
g34
Nsg22
Nsg35
I01
sg25
Nsg26
Nsg36
Nsg37
Nsg38
Nsg31
Nsg28
Nsg29
Nsg39
Nsg27
Nsg33
Nsg24
Nstp5385
Rp5386
sbg454
sg13
(S'q27'
p5387
tp5388
Rp5389
(dp5390
g18
g0
(g19
g20
(dp5391
g22
Nsg24
Nsg25
Nsg26
Nsg27
Nsg28
Nsg30
Nsg31
Nsg32
Nsg33
Nsg34
Nsg35
I01
sg36
Nsg37
Nsg38
Nsg39
Nstp5392
Rp5393
sbg454
sg13
(S'p34'
p5394
tp5395
Rp5396
(dp5397
g18
g0
(g19
g20
(dp5398
g34
Nsg22
Nsg35
I01
sg25
Nsg26
Nsg36
Nsg37
Nsg38
Nsg31
Nsg28
Nsg29
Nsg39
Nsg27
Nsg33
Nsg24
Nstp5399
Rp5400
sbg454
sg13
(S'z1314'
p5401
tp5402
Rp5403
(dp5404
g18
g0
(g19
g20
(dp5405
g50
Nsg51
Nsg52
Nsg26
Nsg27
Nsg53
Nsg54
Nsg30
Nsg55
Nsg32
Nsg34
Nsg35
I01
sg28
Nsg36
Nsg37
Nsg38
Nsg56
Nstp5406
Rp5407
sbg454
sg13
(S'z8386'
p5408
tp5409
Rp5410
(dp5411
g18
g0
(g19
g20
(dp5412
g34
Nsg22
Nsg35
I01
sg25
Nsg26
Nsg36
Nsg37
Nsg38
Nsg31
Nsg28
Nsg29
Nsg39
Nsg27
Nsg33
Nsg24
Nstp5413
Rp5414
sbg454
sg13
(S'z2324'
p5415
tp5416
Rp5417
(dp5418
g18
g0
(g19
g20
(dp5419
g34
Nsg22
Nsg35
I01
sg25
Nsg26
Nsg36
Nsg37
Nsg38
Nsg31
Nsg28
Nsg29
Nsg39
Nsg27
Nsg33
Nsg24
Nstp5420
Rp5421
sbg454
sg13
(S'z8285'
p5422
tp5423
Rp5424
(dp5425
g18
g0
(g19
g20
(dp5426
g34
Nsg22
Nsg35
I01
sg25
Nsg26
Nsg36
Nsg37
Nsg38
Nsg31
Nsg28
Nsg29
Nsg39
Nsg27
Nsg33
Nsg24
Nstp5427
Rp5428
sbg454
sg13
(S'p15'
p5429
tp5430
Rp5431
(dp5432
g18
g0
(g19
g20
(dp5433
g34
Nsg22
Nsg35
I01
sg25
Nsg26
Nsg36
Nsg37
Nsg38
Nsg31
Nsg28
Nsg29
Nsg39
Nsg27
Nsg33
Nsg24
Nstp5434
Rp5435
sbg454
sg13
(S'z2728'
p5436
tp5437
Rp5438
(dp5439
g18
g0
(g19
g20
(dp5440
g50
Nsg51
Nsg52
Nsg26
Nsg27
Nsg53
Nsg54
Nsg30
Nsg55
Nsg32
Nsg34
Nsg35
I01
sg28
Nsg36
Nsg37
Nsg38
Nsg56
Nstp5441
Rp5442
sbg454
sg13
(S'z2528'
p5443
tp5444
Rp5445
(dp5446
g18
g0
(g19
g20
(dp5447
g34
Nsg22
Nsg35
I01
sg25
Nsg26
Nsg36
Nsg37
Nsg38
Nsg31
Nsg28
Nsg29
Nsg39
Nsg27
Nsg33
Nsg24
Nstp5448
Rp5449
sbg454
sg13
(S'z2932'
p5450
tp5451
Rp5452
(dp5453
g18
g0
(g19
g20
(dp5454
g50
Nsg34
Nsg35
I01
sg52
Nsg26
Nsg36
Nsg37
Nsg38
Nsg53
Nsg28
Nsg54
Nsg56
Nsg27
Nsg55
Nsg51
Nstp5455
Rp5456
sbg454
sg13
(S'z3640'
p5457
tp5458
Rp5459
(dp5460
g18
g0
(g19
g20
(dp5461
g34
Nsg22
Nsg35
I01
sg25
Nsg26
Nsg36
Nsg37
Nsg38
Nsg31
Nsg28
Nsg29
Nsg39
Nsg27
Nsg33
Nsg24
Nstp5462
Rp5463
sbg454
sg13
(S'p28'
p5464
tp5465
Rp5466
(dp5467
g18
g0
(g19
g20
(dp5468
g34
Nsg22
Nsg35
I01
sg25
Nsg26
Nsg36
Nsg37
Nsg38
Nsg31
Nsg28
Nsg29
Nsg39
Nsg27
Nsg33
Nsg24
Nstp5469
Rp5470
sbg454
sg13
(S'z7578'
p5471
tp5472
Rp5473
(dp5474
g18
g0
(g19
g20
(dp5475
g34
Nsg22
Nsg35
I01
sg25
Nsg26
Nsg36
Nsg37
Nsg38
Nsg31
Nsg28
Nsg29
Nsg39
Nsg27
Nsg33
Nsg24
Nstp5476
Rp5477
sbg454
sg13
(S'z35'
p5478
tp5479
Rp5480
(dp5481
g18
g0
(g19
g20
(dp5482
g50
Nsg51
Nsg52
Nsg26
Nsg27
Nsg53
Nsg54
Nsg30
Nsg55
Nsg32
Nsg34
Nsg35
I01
sg28
Nsg36
Nsg37
Nsg38
Nsg56
Nstp5483
Rp5484
sbg454
sg13
(S'z5662'
p5485
tp5486
Rp5487
(dp5488
g18
g0
(g19
g20
(dp5489
g50
Nsg34
Nsg51
Nsg52
Nsg26
Nsg36
Nsg37
Nsg38
Nsg53
Nsg28
Nsg54
Nsg56
Nsg27
Nsg55
Nsg35
I01
stp5490
Rp5491
sbg454
sg13
(S'z98100'
p5492
tp5493
Rp5494
(dp5495
g18
g0
(g19
g20
(dp5496
g50
Nsg51
Nsg52
Nsg26
Nsg27
Nsg37
Nsg28
Nsg54
Nsg137
Nsg55
Nsg138
Nsg34
Nsg35
I01
sg36
Nsg53
Nsg38
Nsg56
Nstp5497
Rp5498
sbg454
sg13
(S'p27'
p5499
tp5500
Rp5501
(dp5502
g18
g0
(g19
g20
(dp5503
g34
Nsg22
Nsg35
I01
sg25
Nsg26
Nsg36
Nsg37
Nsg38
Nsg31
Nsg28
Nsg29
Nsg39
Nsg27
Nsg33
Nsg24
Nstp5504
Rp5505
sbg454
sg13
(S'q14'
p5506
tp5507
Rp5508
(dp5509
g18
g0
(g19
g20
(dp5510
g50
Nsg51
Nsg52
Nsg26
Nsg27
Nsg37
Nsg53
Nsg29
Nsg137
Nsg55
Nsg138
Nsg34
Nsg35
I01
sg36
Nsg28
Nsg38
Nsg56
Nstp5511
Rp5512
sbg454
sI01
tp5513
b.